
STM32_protobuf.elf:     file format elf32-littlearm

Sections:
Idx Name          Size      VMA       LMA       File off  Algn
  0 .isr_vector   000002ac  08000000  08000000  00010000  2**0
                  CONTENTS, ALLOC, LOAD, READONLY, DATA
  1 .text         000058ac  080002b0  080002b0  000102b0  2**3
                  CONTENTS, ALLOC, LOAD, READONLY, CODE
  2 .rodata       00000258  08005b5c  08005b5c  00015b5c  2**2
                  CONTENTS, ALLOC, LOAD, READONLY, DATA
  3 .ARM          00000008  08005db4  08005db4  00015db4  2**2
                  CONTENTS, ALLOC, LOAD, READONLY, DATA
  4 .init_array   00000004  08005dbc  08005dbc  00015dbc  2**2
                  CONTENTS, ALLOC, LOAD, DATA
  5 .fini_array   00000004  08005dc0  08005dc0  00015dc0  2**2
                  CONTENTS, ALLOC, LOAD, DATA
  6 .data         00000010  24000000  08005dc4  00020000  2**2
                  CONTENTS, ALLOC, LOAD, DATA
  7 .bss          000000b8  24000010  08005dd4  00020010  2**2
                  ALLOC
  8 ._user_heap_stack 00000600  240000c8  08005dd4  000200c8  2**0
                  ALLOC
  9 .ARM.attributes 0000002e  00000000  00000000  00020010  2**0
                  CONTENTS, READONLY
 10 .comment      00000043  00000000  00000000  0002003e  2**0
                  CONTENTS, READONLY
 11 .debug_frame  000000d4  00000000  00000000  00020084  2**2
                  CONTENTS, READONLY, DEBUGGING, OCTETS

Disassembly of section .text:

080002b0 <__do_global_dtors_aux>:
 80002b0:	b510      	push	{r4, lr}
 80002b2:	4c05      	ldr	r4, [pc, #20]	; (80002c8 <__do_global_dtors_aux+0x18>)
 80002b4:	7823      	ldrb	r3, [r4, #0]
 80002b6:	b933      	cbnz	r3, 80002c6 <__do_global_dtors_aux+0x16>
 80002b8:	4b04      	ldr	r3, [pc, #16]	; (80002cc <__do_global_dtors_aux+0x1c>)
 80002ba:	b113      	cbz	r3, 80002c2 <__do_global_dtors_aux+0x12>
 80002bc:	4804      	ldr	r0, [pc, #16]	; (80002d0 <__do_global_dtors_aux+0x20>)
 80002be:	f3af 8000 	nop.w
 80002c2:	2301      	movs	r3, #1
 80002c4:	7023      	strb	r3, [r4, #0]
 80002c6:	bd10      	pop	{r4, pc}
 80002c8:	24000010 	.word	0x24000010
 80002cc:	00000000 	.word	0x00000000
 80002d0:	08005b44 	.word	0x08005b44

080002d4 <frame_dummy>:
 80002d4:	b508      	push	{r3, lr}
 80002d6:	4b03      	ldr	r3, [pc, #12]	; (80002e4 <frame_dummy+0x10>)
 80002d8:	b11b      	cbz	r3, 80002e2 <frame_dummy+0xe>
 80002da:	4903      	ldr	r1, [pc, #12]	; (80002e8 <frame_dummy+0x14>)
 80002dc:	4803      	ldr	r0, [pc, #12]	; (80002ec <frame_dummy+0x18>)
 80002de:	f3af 8000 	nop.w
 80002e2:	bd08      	pop	{r3, pc}
 80002e4:	00000000 	.word	0x00000000
 80002e8:	24000014 	.word	0x24000014
 80002ec:	08005b44 	.word	0x08005b44

080002f0 <__aeabi_uldivmod>:
 80002f0:	b953      	cbnz	r3, 8000308 <__aeabi_uldivmod+0x18>
 80002f2:	b94a      	cbnz	r2, 8000308 <__aeabi_uldivmod+0x18>
 80002f4:	2900      	cmp	r1, #0
 80002f6:	bf08      	it	eq
 80002f8:	2800      	cmpeq	r0, #0
 80002fa:	bf1c      	itt	ne
 80002fc:	f04f 31ff 	movne.w	r1, #4294967295
 8000300:	f04f 30ff 	movne.w	r0, #4294967295
 8000304:	f000 b970 	b.w	80005e8 <__aeabi_idiv0>
 8000308:	f1ad 0c08 	sub.w	ip, sp, #8
 800030c:	e96d ce04 	strd	ip, lr, [sp, #-16]!
 8000310:	f000 f806 	bl	8000320 <__udivmoddi4>
 8000314:	f8dd e004 	ldr.w	lr, [sp, #4]
 8000318:	e9dd 2302 	ldrd	r2, r3, [sp, #8]
 800031c:	b004      	add	sp, #16
 800031e:	4770      	bx	lr

08000320 <__udivmoddi4>:
 8000320:	e92d 47f0 	stmdb	sp!, {r4, r5, r6, r7, r8, r9, sl, lr}
 8000324:	9e08      	ldr	r6, [sp, #32]
 8000326:	460d      	mov	r5, r1
 8000328:	4604      	mov	r4, r0
 800032a:	460f      	mov	r7, r1
 800032c:	2b00      	cmp	r3, #0
 800032e:	d14a      	bne.n	80003c6 <__udivmoddi4+0xa6>
 8000330:	428a      	cmp	r2, r1
 8000332:	4694      	mov	ip, r2
 8000334:	d965      	bls.n	8000402 <__udivmoddi4+0xe2>
 8000336:	fab2 f382 	clz	r3, r2
 800033a:	b143      	cbz	r3, 800034e <__udivmoddi4+0x2e>
 800033c:	fa02 fc03 	lsl.w	ip, r2, r3
 8000340:	f1c3 0220 	rsb	r2, r3, #32
 8000344:	409f      	lsls	r7, r3
 8000346:	fa20 f202 	lsr.w	r2, r0, r2
 800034a:	4317      	orrs	r7, r2
 800034c:	409c      	lsls	r4, r3
 800034e:	ea4f 4e1c 	mov.w	lr, ip, lsr #16
 8000352:	fa1f f58c 	uxth.w	r5, ip
 8000356:	fbb7 f1fe 	udiv	r1, r7, lr
 800035a:	0c22      	lsrs	r2, r4, #16
 800035c:	fb0e 7711 	mls	r7, lr, r1, r7
 8000360:	ea42 4207 	orr.w	r2, r2, r7, lsl #16
 8000364:	fb01 f005 	mul.w	r0, r1, r5
 8000368:	4290      	cmp	r0, r2
 800036a:	d90a      	bls.n	8000382 <__udivmoddi4+0x62>
 800036c:	eb1c 0202 	adds.w	r2, ip, r2
 8000370:	f101 37ff 	add.w	r7, r1, #4294967295
 8000374:	f080 811c 	bcs.w	80005b0 <__udivmoddi4+0x290>
 8000378:	4290      	cmp	r0, r2
 800037a:	f240 8119 	bls.w	80005b0 <__udivmoddi4+0x290>
 800037e:	3902      	subs	r1, #2
 8000380:	4462      	add	r2, ip
 8000382:	1a12      	subs	r2, r2, r0
 8000384:	b2a4      	uxth	r4, r4
 8000386:	fbb2 f0fe 	udiv	r0, r2, lr
 800038a:	fb0e 2210 	mls	r2, lr, r0, r2
 800038e:	ea44 4402 	orr.w	r4, r4, r2, lsl #16
 8000392:	fb00 f505 	mul.w	r5, r0, r5
 8000396:	42a5      	cmp	r5, r4
 8000398:	d90a      	bls.n	80003b0 <__udivmoddi4+0x90>
 800039a:	eb1c 0404 	adds.w	r4, ip, r4
 800039e:	f100 32ff 	add.w	r2, r0, #4294967295
 80003a2:	f080 8107 	bcs.w	80005b4 <__udivmoddi4+0x294>
 80003a6:	42a5      	cmp	r5, r4
 80003a8:	f240 8104 	bls.w	80005b4 <__udivmoddi4+0x294>
 80003ac:	4464      	add	r4, ip
 80003ae:	3802      	subs	r0, #2
 80003b0:	ea40 4001 	orr.w	r0, r0, r1, lsl #16
 80003b4:	1b64      	subs	r4, r4, r5
 80003b6:	2100      	movs	r1, #0
 80003b8:	b11e      	cbz	r6, 80003c2 <__udivmoddi4+0xa2>
 80003ba:	40dc      	lsrs	r4, r3
 80003bc:	2300      	movs	r3, #0
 80003be:	e9c6 4300 	strd	r4, r3, [r6]
 80003c2:	e8bd 87f0 	ldmia.w	sp!, {r4, r5, r6, r7, r8, r9, sl, pc}
 80003c6:	428b      	cmp	r3, r1
 80003c8:	d908      	bls.n	80003dc <__udivmoddi4+0xbc>
 80003ca:	2e00      	cmp	r6, #0
 80003cc:	f000 80ed 	beq.w	80005aa <__udivmoddi4+0x28a>
 80003d0:	2100      	movs	r1, #0
 80003d2:	e9c6 0500 	strd	r0, r5, [r6]
 80003d6:	4608      	mov	r0, r1
 80003d8:	e8bd 87f0 	ldmia.w	sp!, {r4, r5, r6, r7, r8, r9, sl, pc}
 80003dc:	fab3 f183 	clz	r1, r3
 80003e0:	2900      	cmp	r1, #0
 80003e2:	d149      	bne.n	8000478 <__udivmoddi4+0x158>
 80003e4:	42ab      	cmp	r3, r5
 80003e6:	d302      	bcc.n	80003ee <__udivmoddi4+0xce>
 80003e8:	4282      	cmp	r2, r0
 80003ea:	f200 80f8 	bhi.w	80005de <__udivmoddi4+0x2be>
 80003ee:	1a84      	subs	r4, r0, r2
 80003f0:	eb65 0203 	sbc.w	r2, r5, r3
 80003f4:	2001      	movs	r0, #1
 80003f6:	4617      	mov	r7, r2
 80003f8:	2e00      	cmp	r6, #0
 80003fa:	d0e2      	beq.n	80003c2 <__udivmoddi4+0xa2>
 80003fc:	e9c6 4700 	strd	r4, r7, [r6]
 8000400:	e7df      	b.n	80003c2 <__udivmoddi4+0xa2>
 8000402:	b902      	cbnz	r2, 8000406 <__udivmoddi4+0xe6>
 8000404:	deff      	udf	#255	; 0xff
 8000406:	fab2 f382 	clz	r3, r2
 800040a:	2b00      	cmp	r3, #0
 800040c:	f040 8090 	bne.w	8000530 <__udivmoddi4+0x210>
 8000410:	1a8a      	subs	r2, r1, r2
 8000412:	ea4f 471c 	mov.w	r7, ip, lsr #16
 8000416:	fa1f fe8c 	uxth.w	lr, ip
 800041a:	2101      	movs	r1, #1
 800041c:	fbb2 f5f7 	udiv	r5, r2, r7
 8000420:	fb07 2015 	mls	r0, r7, r5, r2
 8000424:	0c22      	lsrs	r2, r4, #16
 8000426:	ea42 4200 	orr.w	r2, r2, r0, lsl #16
 800042a:	fb0e f005 	mul.w	r0, lr, r5
 800042e:	4290      	cmp	r0, r2
 8000430:	d908      	bls.n	8000444 <__udivmoddi4+0x124>
 8000432:	eb1c 0202 	adds.w	r2, ip, r2
 8000436:	f105 38ff 	add.w	r8, r5, #4294967295
 800043a:	d202      	bcs.n	8000442 <__udivmoddi4+0x122>
 800043c:	4290      	cmp	r0, r2
 800043e:	f200 80cb 	bhi.w	80005d8 <__udivmoddi4+0x2b8>
 8000442:	4645      	mov	r5, r8
 8000444:	1a12      	subs	r2, r2, r0
 8000446:	b2a4      	uxth	r4, r4
 8000448:	fbb2 f0f7 	udiv	r0, r2, r7
 800044c:	fb07 2210 	mls	r2, r7, r0, r2
 8000450:	ea44 4402 	orr.w	r4, r4, r2, lsl #16
 8000454:	fb0e fe00 	mul.w	lr, lr, r0
 8000458:	45a6      	cmp	lr, r4
 800045a:	d908      	bls.n	800046e <__udivmoddi4+0x14e>
 800045c:	eb1c 0404 	adds.w	r4, ip, r4
 8000460:	f100 32ff 	add.w	r2, r0, #4294967295
 8000464:	d202      	bcs.n	800046c <__udivmoddi4+0x14c>
 8000466:	45a6      	cmp	lr, r4
 8000468:	f200 80bb 	bhi.w	80005e2 <__udivmoddi4+0x2c2>
 800046c:	4610      	mov	r0, r2
 800046e:	eba4 040e 	sub.w	r4, r4, lr
 8000472:	ea40 4005 	orr.w	r0, r0, r5, lsl #16
 8000476:	e79f      	b.n	80003b8 <__udivmoddi4+0x98>
 8000478:	f1c1 0720 	rsb	r7, r1, #32
 800047c:	408b      	lsls	r3, r1
 800047e:	fa22 fc07 	lsr.w	ip, r2, r7
 8000482:	ea4c 0c03 	orr.w	ip, ip, r3
 8000486:	fa05 f401 	lsl.w	r4, r5, r1
 800048a:	fa20 f307 	lsr.w	r3, r0, r7
 800048e:	40fd      	lsrs	r5, r7
 8000490:	ea4f 491c 	mov.w	r9, ip, lsr #16
 8000494:	4323      	orrs	r3, r4
 8000496:	fbb5 f8f9 	udiv	r8, r5, r9
 800049a:	fa1f fe8c 	uxth.w	lr, ip
 800049e:	fb09 5518 	mls	r5, r9, r8, r5
 80004a2:	0c1c      	lsrs	r4, r3, #16
 80004a4:	ea44 4405 	orr.w	r4, r4, r5, lsl #16
 80004a8:	fb08 f50e 	mul.w	r5, r8, lr
 80004ac:	42a5      	cmp	r5, r4
 80004ae:	fa02 f201 	lsl.w	r2, r2, r1
 80004b2:	fa00 f001 	lsl.w	r0, r0, r1
 80004b6:	d90b      	bls.n	80004d0 <__udivmoddi4+0x1b0>
 80004b8:	eb1c 0404 	adds.w	r4, ip, r4
 80004bc:	f108 3aff 	add.w	sl, r8, #4294967295
 80004c0:	f080 8088 	bcs.w	80005d4 <__udivmoddi4+0x2b4>
 80004c4:	42a5      	cmp	r5, r4
 80004c6:	f240 8085 	bls.w	80005d4 <__udivmoddi4+0x2b4>
 80004ca:	f1a8 0802 	sub.w	r8, r8, #2
 80004ce:	4464      	add	r4, ip
 80004d0:	1b64      	subs	r4, r4, r5
 80004d2:	b29d      	uxth	r5, r3
 80004d4:	fbb4 f3f9 	udiv	r3, r4, r9
 80004d8:	fb09 4413 	mls	r4, r9, r3, r4
 80004dc:	ea45 4404 	orr.w	r4, r5, r4, lsl #16
 80004e0:	fb03 fe0e 	mul.w	lr, r3, lr
 80004e4:	45a6      	cmp	lr, r4
 80004e6:	d908      	bls.n	80004fa <__udivmoddi4+0x1da>
 80004e8:	eb1c 0404 	adds.w	r4, ip, r4
 80004ec:	f103 35ff 	add.w	r5, r3, #4294967295
 80004f0:	d26c      	bcs.n	80005cc <__udivmoddi4+0x2ac>
 80004f2:	45a6      	cmp	lr, r4
 80004f4:	d96a      	bls.n	80005cc <__udivmoddi4+0x2ac>
 80004f6:	3b02      	subs	r3, #2
 80004f8:	4464      	add	r4, ip
 80004fa:	ea43 4308 	orr.w	r3, r3, r8, lsl #16
 80004fe:	fba3 9502 	umull	r9, r5, r3, r2
 8000502:	eba4 040e 	sub.w	r4, r4, lr
 8000506:	42ac      	cmp	r4, r5
 8000508:	46c8      	mov	r8, r9
 800050a:	46ae      	mov	lr, r5
 800050c:	d356      	bcc.n	80005bc <__udivmoddi4+0x29c>
 800050e:	d053      	beq.n	80005b8 <__udivmoddi4+0x298>
 8000510:	b156      	cbz	r6, 8000528 <__udivmoddi4+0x208>
 8000512:	ebb0 0208 	subs.w	r2, r0, r8
 8000516:	eb64 040e 	sbc.w	r4, r4, lr
 800051a:	fa04 f707 	lsl.w	r7, r4, r7
 800051e:	40ca      	lsrs	r2, r1
 8000520:	40cc      	lsrs	r4, r1
 8000522:	4317      	orrs	r7, r2
 8000524:	e9c6 7400 	strd	r7, r4, [r6]
 8000528:	4618      	mov	r0, r3
 800052a:	2100      	movs	r1, #0
 800052c:	e8bd 87f0 	ldmia.w	sp!, {r4, r5, r6, r7, r8, r9, sl, pc}
 8000530:	f1c3 0120 	rsb	r1, r3, #32
 8000534:	fa02 fc03 	lsl.w	ip, r2, r3
 8000538:	fa20 f201 	lsr.w	r2, r0, r1
 800053c:	fa25 f101 	lsr.w	r1, r5, r1
 8000540:	409d      	lsls	r5, r3
 8000542:	432a      	orrs	r2, r5
 8000544:	ea4f 471c 	mov.w	r7, ip, lsr #16
 8000548:	fa1f fe8c 	uxth.w	lr, ip
 800054c:	fbb1 f0f7 	udiv	r0, r1, r7
 8000550:	fb07 1510 	mls	r5, r7, r0, r1
 8000554:	0c11      	lsrs	r1, r2, #16
 8000556:	ea41 4105 	orr.w	r1, r1, r5, lsl #16
 800055a:	fb00 f50e 	mul.w	r5, r0, lr
 800055e:	428d      	cmp	r5, r1
 8000560:	fa04 f403 	lsl.w	r4, r4, r3
 8000564:	d908      	bls.n	8000578 <__udivmoddi4+0x258>
 8000566:	eb1c 0101 	adds.w	r1, ip, r1
 800056a:	f100 38ff 	add.w	r8, r0, #4294967295
 800056e:	d22f      	bcs.n	80005d0 <__udivmoddi4+0x2b0>
 8000570:	428d      	cmp	r5, r1
 8000572:	d92d      	bls.n	80005d0 <__udivmoddi4+0x2b0>
 8000574:	3802      	subs	r0, #2
 8000576:	4461      	add	r1, ip
 8000578:	1b49      	subs	r1, r1, r5
 800057a:	b292      	uxth	r2, r2
 800057c:	fbb1 f5f7 	udiv	r5, r1, r7
 8000580:	fb07 1115 	mls	r1, r7, r5, r1
 8000584:	ea42 4201 	orr.w	r2, r2, r1, lsl #16
 8000588:	fb05 f10e 	mul.w	r1, r5, lr
 800058c:	4291      	cmp	r1, r2
 800058e:	d908      	bls.n	80005a2 <__udivmoddi4+0x282>
 8000590:	eb1c 0202 	adds.w	r2, ip, r2
 8000594:	f105 38ff 	add.w	r8, r5, #4294967295
 8000598:	d216      	bcs.n	80005c8 <__udivmoddi4+0x2a8>
 800059a:	4291      	cmp	r1, r2
 800059c:	d914      	bls.n	80005c8 <__udivmoddi4+0x2a8>
 800059e:	3d02      	subs	r5, #2
 80005a0:	4462      	add	r2, ip
 80005a2:	1a52      	subs	r2, r2, r1
 80005a4:	ea45 4100 	orr.w	r1, r5, r0, lsl #16
 80005a8:	e738      	b.n	800041c <__udivmoddi4+0xfc>
 80005aa:	4631      	mov	r1, r6
 80005ac:	4630      	mov	r0, r6
 80005ae:	e708      	b.n	80003c2 <__udivmoddi4+0xa2>
 80005b0:	4639      	mov	r1, r7
 80005b2:	e6e6      	b.n	8000382 <__udivmoddi4+0x62>
 80005b4:	4610      	mov	r0, r2
 80005b6:	e6fb      	b.n	80003b0 <__udivmoddi4+0x90>
 80005b8:	4548      	cmp	r0, r9
 80005ba:	d2a9      	bcs.n	8000510 <__udivmoddi4+0x1f0>
 80005bc:	ebb9 0802 	subs.w	r8, r9, r2
 80005c0:	eb65 0e0c 	sbc.w	lr, r5, ip
 80005c4:	3b01      	subs	r3, #1
 80005c6:	e7a3      	b.n	8000510 <__udivmoddi4+0x1f0>
 80005c8:	4645      	mov	r5, r8
 80005ca:	e7ea      	b.n	80005a2 <__udivmoddi4+0x282>
 80005cc:	462b      	mov	r3, r5
 80005ce:	e794      	b.n	80004fa <__udivmoddi4+0x1da>
 80005d0:	4640      	mov	r0, r8
 80005d2:	e7d1      	b.n	8000578 <__udivmoddi4+0x258>
 80005d4:	46d0      	mov	r8, sl
 80005d6:	e77b      	b.n	80004d0 <__udivmoddi4+0x1b0>
 80005d8:	3d02      	subs	r5, #2
 80005da:	4462      	add	r2, ip
 80005dc:	e732      	b.n	8000444 <__udivmoddi4+0x124>
 80005de:	4608      	mov	r0, r1
 80005e0:	e70a      	b.n	80003f8 <__udivmoddi4+0xd8>
 80005e2:	4464      	add	r4, ip
 80005e4:	3802      	subs	r0, #2
 80005e6:	e742      	b.n	800046e <__udivmoddi4+0x14e>

080005e8 <__aeabi_idiv0>:
 80005e8:	4770      	bx	lr
 80005ea:	bf00      	nop

080005ec <HAL_UART_RxCpltCallback>:
 80005ec:	b508      	push	{r3, lr}
 80005ee:	4b09      	ldr	r3, [pc, #36]	; (8000614 <HAL_UART_RxCpltCallback+0x28>)
 80005f0:	781a      	ldrb	r2, [r3, #0]
 80005f2:	b942      	cbnz	r2, 8000606 <HAL_UART_RxCpltCallback+0x1a>
 80005f4:	2201      	movs	r2, #1
 80005f6:	701a      	strb	r2, [r3, #0]
 80005f8:	2202      	movs	r2, #2
 80005fa:	4907      	ldr	r1, [pc, #28]	; (8000618 <HAL_UART_RxCpltCallback+0x2c>)
 80005fc:	4807      	ldr	r0, [pc, #28]	; (800061c <HAL_UART_RxCpltCallback+0x30>)
 80005fe:	e8bd 4008 	ldmia.w	sp!, {r3, lr}
 8000602:	f002 bd9b 	b.w	800313c <HAL_UART_Receive_IT>
 8000606:	2201      	movs	r2, #1
 8000608:	f44f 4180 	mov.w	r1, #16384	; 0x4000
 800060c:	4804      	ldr	r0, [pc, #16]	; (8000620 <HAL_UART_RxCpltCallback+0x34>)
 800060e:	f000 ff2d 	bl	800146c <HAL_GPIO_WritePin>
 8000612:	e7f1      	b.n	80005f8 <HAL_UART_RxCpltCallback+0xc>
 8000614:	240000c2 	.word	0x240000c2
 8000618:	240000c0 	.word	0x240000c0
 800061c:	2400002c 	.word	0x2400002c
 8000620:	58020400 	.word	0x58020400

08000624 <HAL_UART_ErrorCallback>:
 8000624:	2201      	movs	r2, #1
 8000626:	f44f 4180 	mov.w	r1, #16384	; 0x4000
 800062a:	4801      	ldr	r0, [pc, #4]	; (8000630 <HAL_UART_ErrorCallback+0xc>)
 800062c:	f000 bf1e 	b.w	800146c <HAL_GPIO_WritePin>
 8000630:	58020400 	.word	0x58020400

08000634 <SystemClock_Config>:
 8000634:	b530      	push	{r4, r5, lr}
 8000636:	b09f      	sub	sp, #124	; 0x7c
 8000638:	224c      	movs	r2, #76	; 0x4c
 800063a:	2100      	movs	r1, #0
 800063c:	a80a      	add	r0, sp, #40	; 0x28
 800063e:	f005 fa47 	bl	8005ad0 <memset>
 8000642:	2220      	movs	r2, #32
 8000644:	2100      	movs	r1, #0
 8000646:	a802      	add	r0, sp, #8
 8000648:	f005 fa42 	bl	8005ad0 <memset>
 800064c:	4b23      	ldr	r3, [pc, #140]	; (80006dc <SystemClock_Config+0xa8>)
 800064e:	f04f 32ff 	mov.w	r2, #4294967295
 8000652:	2004      	movs	r0, #4
 8000654:	f8c3 20b0 	str.w	r2, [r3, #176]	; 0xb0
 8000658:	f000 ff0c 	bl	8001474 <HAL_PWREx_ConfigSupply>
 800065c:	4a20      	ldr	r2, [pc, #128]	; (80006e0 <SystemClock_Config+0xac>)
 800065e:	2300      	movs	r3, #0
 8000660:	9301      	str	r3, [sp, #4]
 8000662:	6993      	ldr	r3, [r2, #24]
 8000664:	f443 4340 	orr.w	r3, r3, #49152	; 0xc000
 8000668:	6193      	str	r3, [r2, #24]
 800066a:	6993      	ldr	r3, [r2, #24]
 800066c:	f403 4340 	and.w	r3, r3, #49152	; 0xc000
 8000670:	9301      	str	r3, [sp, #4]
 8000672:	9b01      	ldr	r3, [sp, #4]
 8000674:	6993      	ldr	r3, [r2, #24]
 8000676:	049b      	lsls	r3, r3, #18
 8000678:	d5fc      	bpl.n	8000674 <SystemClock_Config+0x40>
 800067a:	2201      	movs	r2, #1
 800067c:	2300      	movs	r3, #0
 800067e:	2021      	movs	r0, #33	; 0x21
 8000680:	f44f 21a0 	mov.w	r1, #327680	; 0x50000
 8000684:	9210      	str	r2, [sp, #64]	; 0x40
 8000686:	2402      	movs	r4, #2
 8000688:	9215      	str	r2, [sp, #84]	; 0x54
 800068a:	2218      	movs	r2, #24
 800068c:	931b      	str	r3, [sp, #108]	; 0x6c
 800068e:	9216      	str	r2, [sp, #88]	; 0x58
 8000690:	2204      	movs	r2, #4
 8000692:	931c      	str	r3, [sp, #112]	; 0x70
 8000694:	230c      	movs	r3, #12
 8000696:	9417      	str	r4, [sp, #92]	; 0x5c
 8000698:	931a      	str	r3, [sp, #104]	; 0x68
 800069a:	9419      	str	r4, [sp, #100]	; 0x64
 800069c:	9218      	str	r2, [sp, #96]	; 0x60
 800069e:	e9cd 010a 	strd	r0, r1, [sp, #40]	; 0x28
 80006a2:	a80a      	add	r0, sp, #40	; 0x28
 80006a4:	e9cd 4413 	strd	r4, r4, [sp, #76]	; 0x4c
 80006a8:	f000 ffa4 	bl	80015f4 <HAL_RCC_OscConfig>
 80006ac:	4603      	mov	r3, r0
 80006ae:	b108      	cbz	r0, 80006b4 <SystemClock_Config+0x80>
 80006b0:	b672      	cpsid	i
 80006b2:	e7fe      	b.n	80006b2 <SystemClock_Config+0x7e>
 80006b4:	253f      	movs	r5, #63	; 0x3f
 80006b6:	2203      	movs	r2, #3
 80006b8:	4621      	mov	r1, r4
 80006ba:	a802      	add	r0, sp, #8
 80006bc:	e9cd 5202 	strd	r5, r2, [sp, #8]
 80006c0:	e9cd 3304 	strd	r3, r3, [sp, #16]
 80006c4:	e9cd 3306 	strd	r3, r3, [sp, #24]
 80006c8:	e9cd 3308 	strd	r3, r3, [sp, #32]
 80006cc:	f001 fb18 	bl	8001d00 <HAL_RCC_ClockConfig>
 80006d0:	b108      	cbz	r0, 80006d6 <SystemClock_Config+0xa2>
 80006d2:	b672      	cpsid	i
 80006d4:	e7fe      	b.n	80006d4 <SystemClock_Config+0xa0>
 80006d6:	b01f      	add	sp, #124	; 0x7c
 80006d8:	bd30      	pop	{r4, r5, pc}
 80006da:	bf00      	nop
 80006dc:	58024400 	.word	0x58024400
 80006e0:	58024800 	.word	0x58024800

080006e4 <main>:
 80006e4:	b580      	push	{r7, lr}
 80006e6:	b08e      	sub	sp, #56	; 0x38
 80006e8:	2400      	movs	r4, #0
 80006ea:	f000 fa95 	bl	8000c18 <HAL_Init>
 80006ee:	2701      	movs	r7, #1
 80006f0:	f7ff ffa0 	bl	8000634 <SystemClock_Config>
 80006f4:	4b90      	ldr	r3, [pc, #576]	; (8000938 <main+0x254>)
 80006f6:	940c      	str	r4, [sp, #48]	; 0x30
 80006f8:	f44f 6180 	mov.w	r1, #1024	; 0x400
 80006fc:	4622      	mov	r2, r4
 80006fe:	f44f 6580 	mov.w	r5, #1024	; 0x400
 8000702:	2602      	movs	r6, #2
 8000704:	e9cd 4408 	strd	r4, r4, [sp, #32]
 8000708:	e9cd 440a 	strd	r4, r4, [sp, #40]	; 0x28
 800070c:	f8d3 0140 	ldr.w	r0, [r3, #320]	; 0x140
 8000710:	f040 0004 	orr.w	r0, r0, #4
 8000714:	f8c3 0140 	str.w	r0, [r3, #320]	; 0x140
 8000718:	f8d3 0140 	ldr.w	r0, [r3, #320]	; 0x140
 800071c:	f000 0004 	and.w	r0, r0, #4
 8000720:	9000      	str	r0, [sp, #0]
 8000722:	9800      	ldr	r0, [sp, #0]
 8000724:	f8d3 0140 	ldr.w	r0, [r3, #320]	; 0x140
 8000728:	f040 0020 	orr.w	r0, r0, #32
 800072c:	f8c3 0140 	str.w	r0, [r3, #320]	; 0x140
 8000730:	f8d3 0140 	ldr.w	r0, [r3, #320]	; 0x140
 8000734:	f000 0020 	and.w	r0, r0, #32
 8000738:	9001      	str	r0, [sp, #4]
 800073a:	9801      	ldr	r0, [sp, #4]
 800073c:	f8d3 0140 	ldr.w	r0, [r3, #320]	; 0x140
 8000740:	f040 0080 	orr.w	r0, r0, #128	; 0x80
 8000744:	f8c3 0140 	str.w	r0, [r3, #320]	; 0x140
 8000748:	f8d3 0140 	ldr.w	r0, [r3, #320]	; 0x140
 800074c:	f000 0080 	and.w	r0, r0, #128	; 0x80
 8000750:	9002      	str	r0, [sp, #8]
 8000752:	9802      	ldr	r0, [sp, #8]
 8000754:	f8d3 0140 	ldr.w	r0, [r3, #320]	; 0x140
 8000758:	f040 0002 	orr.w	r0, r0, #2
 800075c:	f8c3 0140 	str.w	r0, [r3, #320]	; 0x140
 8000760:	f8d3 0140 	ldr.w	r0, [r3, #320]	; 0x140
 8000764:	f000 0002 	and.w	r0, r0, #2
 8000768:	9003      	str	r0, [sp, #12]
 800076a:	9803      	ldr	r0, [sp, #12]
 800076c:	f8d3 0140 	ldr.w	r0, [r3, #320]	; 0x140
 8000770:	f040 0008 	orr.w	r0, r0, #8
 8000774:	f8c3 0140 	str.w	r0, [r3, #320]	; 0x140
 8000778:	f8d3 0140 	ldr.w	r0, [r3, #320]	; 0x140
 800077c:	f000 0008 	and.w	r0, r0, #8
 8000780:	9004      	str	r0, [sp, #16]
 8000782:	9804      	ldr	r0, [sp, #16]
 8000784:	f8d3 0140 	ldr.w	r0, [r3, #320]	; 0x140
 8000788:	f040 0040 	orr.w	r0, r0, #64	; 0x40
 800078c:	f8c3 0140 	str.w	r0, [r3, #320]	; 0x140
 8000790:	f8d3 0140 	ldr.w	r0, [r3, #320]	; 0x140
 8000794:	f000 0040 	and.w	r0, r0, #64	; 0x40
 8000798:	9005      	str	r0, [sp, #20]
 800079a:	9805      	ldr	r0, [sp, #20]
 800079c:	f8d3 0140 	ldr.w	r0, [r3, #320]	; 0x140
 80007a0:	f040 0001 	orr.w	r0, r0, #1
 80007a4:	f8c3 0140 	str.w	r0, [r3, #320]	; 0x140
 80007a8:	f8d3 0140 	ldr.w	r0, [r3, #320]	; 0x140
 80007ac:	f000 0001 	and.w	r0, r0, #1
 80007b0:	9006      	str	r0, [sp, #24]
 80007b2:	9806      	ldr	r0, [sp, #24]
 80007b4:	f8d3 0140 	ldr.w	r0, [r3, #320]	; 0x140
 80007b8:	f040 0010 	orr.w	r0, r0, #16
 80007bc:	f8c3 0140 	str.w	r0, [r3, #320]	; 0x140
 80007c0:	f8d3 3140 	ldr.w	r3, [r3, #320]	; 0x140
 80007c4:	485d      	ldr	r0, [pc, #372]	; (800093c <main+0x258>)
 80007c6:	f003 0310 	and.w	r3, r3, #16
 80007ca:	9307      	str	r3, [sp, #28]
 80007cc:	9b07      	ldr	r3, [sp, #28]
 80007ce:	f000 fe4d 	bl	800146c <HAL_GPIO_WritePin>
 80007d2:	4622      	mov	r2, r4
 80007d4:	f244 0101 	movw	r1, #16385	; 0x4001
 80007d8:	4859      	ldr	r0, [pc, #356]	; (8000940 <main+0x25c>)
 80007da:	f000 fe47 	bl	800146c <HAL_GPIO_WritePin>
 80007de:	4622      	mov	r2, r4
 80007e0:	2102      	movs	r1, #2
 80007e2:	4858      	ldr	r0, [pc, #352]	; (8000944 <main+0x260>)
 80007e4:	f000 fe42 	bl	800146c <HAL_GPIO_WritePin>
 80007e8:	f44f 5200 	mov.w	r2, #8192	; 0x2000
 80007ec:	2300      	movs	r3, #0
 80007ee:	a908      	add	r1, sp, #32
 80007f0:	4855      	ldr	r0, [pc, #340]	; (8000948 <main+0x264>)
 80007f2:	940a      	str	r4, [sp, #40]	; 0x28
 80007f4:	e9cd 2308 	strd	r2, r3, [sp, #32]
 80007f8:	f000 fd06 	bl	8001208 <HAL_GPIO_Init>
 80007fc:	a908      	add	r1, sp, #32
 80007fe:	484f      	ldr	r0, [pc, #316]	; (800093c <main+0x258>)
 8000800:	e9cd 5708 	strd	r5, r7, [sp, #32]
 8000804:	e9cd 440a 	strd	r4, r4, [sp, #40]	; 0x28
 8000808:	f000 fcfe 	bl	8001208 <HAL_GPIO_Init>
 800080c:	f244 0301 	movw	r3, #16385	; 0x4001
 8000810:	a908      	add	r1, sp, #32
 8000812:	484b      	ldr	r0, [pc, #300]	; (8000940 <main+0x25c>)
 8000814:	9308      	str	r3, [sp, #32]
 8000816:	940b      	str	r4, [sp, #44]	; 0x2c
 8000818:	e9cd 7409 	strd	r7, r4, [sp, #36]	; 0x24
 800081c:	f000 fcf4 	bl	8001208 <HAL_GPIO_Init>
 8000820:	2280      	movs	r2, #128	; 0x80
 8000822:	f44f 1388 	mov.w	r3, #1114112	; 0x110000
 8000826:	a908      	add	r1, sp, #32
 8000828:	4848      	ldr	r0, [pc, #288]	; (800094c <main+0x268>)
 800082a:	940a      	str	r4, [sp, #40]	; 0x28
 800082c:	e9cd 2308 	strd	r2, r3, [sp, #32]
 8000830:	f000 fcea 	bl	8001208 <HAL_GPIO_Init>
 8000834:	f44f 7200 	mov.w	r2, #512	; 0x200
 8000838:	2300      	movs	r3, #0
 800083a:	a908      	add	r1, sp, #32
 800083c:	4844      	ldr	r0, [pc, #272]	; (8000950 <main+0x26c>)
 800083e:	940a      	str	r4, [sp, #40]	; 0x28
 8000840:	e9cd 2308 	strd	r2, r3, [sp, #32]
 8000844:	f000 fce0 	bl	8001208 <HAL_GPIO_Init>
 8000848:	230a      	movs	r3, #10
 800084a:	a908      	add	r1, sp, #32
 800084c:	4840      	ldr	r0, [pc, #256]	; (8000950 <main+0x26c>)
 800084e:	9508      	str	r5, [sp, #32]
 8000850:	930c      	str	r3, [sp, #48]	; 0x30
 8000852:	940b      	str	r4, [sp, #44]	; 0x2c
 8000854:	4d3f      	ldr	r5, [pc, #252]	; (8000954 <main+0x270>)
 8000856:	e9cd 6409 	strd	r6, r4, [sp, #36]	; 0x24
 800085a:	f000 fcd5 	bl	8001208 <HAL_GPIO_Init>
 800085e:	f44f 53c0 	mov.w	r3, #6144	; 0x1800
 8000862:	a908      	add	r1, sp, #32
 8000864:	483a      	ldr	r0, [pc, #232]	; (8000950 <main+0x26c>)
 8000866:	9308      	str	r3, [sp, #32]
 8000868:	940b      	str	r4, [sp, #44]	; 0x2c
 800086a:	e9cd 6409 	strd	r6, r4, [sp, #36]	; 0x24
 800086e:	f000 fccb 	bl	8001208 <HAL_GPIO_Init>
 8000872:	4834      	ldr	r0, [pc, #208]	; (8000944 <main+0x260>)
 8000874:	a908      	add	r1, sp, #32
 8000876:	e9cd 6708 	strd	r6, r7, [sp, #32]
 800087a:	e9cd 440a 	strd	r4, r4, [sp, #40]	; 0x28
 800087e:	f000 fcc3 	bl	8001208 <HAL_GPIO_Init>
 8000882:	f44f 33e1 	mov.w	r3, #115200	; 0x1c200
 8000886:	4a34      	ldr	r2, [pc, #208]	; (8000958 <main+0x274>)
 8000888:	4628      	mov	r0, r5
 800088a:	606b      	str	r3, [r5, #4]
 800088c:	230c      	movs	r3, #12
 800088e:	60ac      	str	r4, [r5, #8]
 8000890:	602a      	str	r2, [r5, #0]
 8000892:	60ec      	str	r4, [r5, #12]
 8000894:	62ac      	str	r4, [r5, #40]	; 0x28
 8000896:	e9c5 4304 	strd	r4, r3, [r5, #16]
 800089a:	e9c5 4406 	strd	r4, r4, [r5, #24]
 800089e:	e9c5 4408 	strd	r4, r4, [r5, #32]
 80008a2:	f003 fd7b 	bl	800439c <HAL_UART_Init>
 80008a6:	b108      	cbz	r0, 80008ac <main+0x1c8>
 80008a8:	b672      	cpsid	i
 80008aa:	e7fe      	b.n	80008aa <main+0x1c6>
 80008ac:	4601      	mov	r1, r0
 80008ae:	4628      	mov	r0, r5
 80008b0:	f003 fdcc 	bl	800444c <HAL_UARTEx_SetTxFifoThreshold>
 80008b4:	b108      	cbz	r0, 80008ba <main+0x1d6>
 80008b6:	b672      	cpsid	i
 80008b8:	e7fe      	b.n	80008b8 <main+0x1d4>
 80008ba:	4601      	mov	r1, r0
 80008bc:	4628      	mov	r0, r5
 80008be:	f003 fe07 	bl	80044d0 <HAL_UARTEx_SetRxFifoThreshold>
 80008c2:	b108      	cbz	r0, 80008c8 <main+0x1e4>
 80008c4:	b672      	cpsid	i
 80008c6:	e7fe      	b.n	80008c6 <main+0x1e2>
 80008c8:	4628      	mov	r0, r5
 80008ca:	f003 fda1 	bl	8004410 <HAL_UARTEx_DisableFifoMode>
 80008ce:	b108      	cbz	r0, 80008d4 <main+0x1f0>
 80008d0:	b672      	cpsid	i
 80008d2:	e7fe      	b.n	80008d2 <main+0x1ee>
 80008d4:	4f21      	ldr	r7, [pc, #132]	; (800095c <main+0x278>)
 80008d6:	4632      	mov	r2, r6
 80008d8:	4921      	ldr	r1, [pc, #132]	; (8000960 <main+0x27c>)
 80008da:	4628      	mov	r0, r5
 80008dc:	f002 fc2e 	bl	800313c <HAL_UART_Receive_IT>
 80008e0:	783b      	ldrb	r3, [r7, #0]
 80008e2:	b903      	cbnz	r3, 80008e6 <main+0x202>
 80008e4:	e7fe      	b.n	80008e4 <main+0x200>
 80008e6:	4d17      	ldr	r5, [pc, #92]	; (8000944 <main+0x260>)
 80008e8:	f8df 8074 	ldr.w	r8, [pc, #116]	; 8000960 <main+0x27c>
 80008ec:	4e14      	ldr	r6, [pc, #80]	; (8000940 <main+0x25c>)
 80008ee:	2201      	movs	r2, #1
 80008f0:	2102      	movs	r1, #2
 80008f2:	4628      	mov	r0, r5
 80008f4:	f000 fdba 	bl	800146c <HAL_GPIO_WritePin>
 80008f8:	4640      	mov	r0, r8
 80008fa:	f000 f835 	bl	8000968 <processProtobufMsg>
 80008fe:	4604      	mov	r4, r0
 8000900:	2201      	movs	r2, #1
 8000902:	f44f 4180 	mov.w	r1, #16384	; 0x4000
 8000906:	4630      	mov	r0, r6
 8000908:	b95c      	cbnz	r4, 8000922 <main+0x23e>
 800090a:	f000 fdaf 	bl	800146c <HAL_GPIO_WritePin>
 800090e:	4622      	mov	r2, r4
 8000910:	2102      	movs	r1, #2
 8000912:	4628      	mov	r0, r5
 8000914:	703c      	strb	r4, [r7, #0]
 8000916:	f000 fda9 	bl	800146c <HAL_GPIO_WritePin>
 800091a:	783b      	ldrb	r3, [r7, #0]
 800091c:	2b00      	cmp	r3, #0
 800091e:	d1e6      	bne.n	80008ee <main+0x20a>
 8000920:	e7e0      	b.n	80008e4 <main+0x200>
 8000922:	2200      	movs	r2, #0
 8000924:	2102      	movs	r1, #2
 8000926:	4628      	mov	r0, r5
 8000928:	703a      	strb	r2, [r7, #0]
 800092a:	f000 fd9f 	bl	800146c <HAL_GPIO_WritePin>
 800092e:	783b      	ldrb	r3, [r7, #0]
 8000930:	2b00      	cmp	r3, #0
 8000932:	d1dc      	bne.n	80008ee <main+0x20a>
 8000934:	e7d6      	b.n	80008e4 <main+0x200>
 8000936:	bf00      	nop
 8000938:	58024400 	.word	0x58024400
 800093c:	58021400 	.word	0x58021400
 8000940:	58020400 	.word	0x58020400
 8000944:	58021000 	.word	0x58021000
 8000948:	58020800 	.word	0x58020800
 800094c:	58021800 	.word	0x58021800
 8000950:	58020000 	.word	0x58020000
 8000954:	2400002c 	.word	0x2400002c
 8000958:	40004800 	.word	0x40004800
 800095c:	240000c2 	.word	0x240000c2
 8000960:	240000c0 	.word	0x240000c0

08000964 <Error_Handler>:
 8000964:	b672      	cpsid	i
 8000966:	e7fe      	b.n	8000966 <Error_Handler+0x2>

08000968 <processProtobufMsg>:
 8000968:	b510      	push	{r4, lr}
 800096a:	b086      	sub	sp, #24
 800096c:	2300      	movs	r3, #0
 800096e:	4601      	mov	r1, r0
 8000970:	2202      	movs	r2, #2
 8000972:	a802      	add	r0, sp, #8
 8000974:	f88d 3000 	strb.w	r3, [sp]
 8000978:	9301      	str	r3, [sp, #4]
 800097a:	f004 fa8d 	bl	8004e98 <pb_istream_from_buffer>
 800097e:	466a      	mov	r2, sp
 8000980:	490b      	ldr	r1, [pc, #44]	; (80009b0 <processProtobufMsg+0x48>)
 8000982:	a802      	add	r0, sp, #8
 8000984:	4c0b      	ldr	r4, [pc, #44]	; (80009b4 <processProtobufMsg+0x4c>)
 8000986:	f005 f89f 	bl	8005ac8 <pb_decode>
 800098a:	f89d 3000 	ldrb.w	r3, [sp]
 800098e:	7020      	strb	r0, [r4, #0]
 8000990:	4003      	ands	r3, r0
 8000992:	d004      	beq.n	800099e <processProtobufMsg+0x36>
 8000994:	9a01      	ldr	r2, [sp, #4]
 8000996:	2a01      	cmp	r2, #1
 8000998:	d003      	beq.n	80009a2 <processProtobufMsg+0x3a>
 800099a:	b112      	cbz	r2, 80009a2 <processProtobufMsg+0x3a>
 800099c:	4618      	mov	r0, r3
 800099e:	b006      	add	sp, #24
 80009a0:	bd10      	pop	{r4, pc}
 80009a2:	2101      	movs	r1, #1
 80009a4:	4804      	ldr	r0, [pc, #16]	; (80009b8 <processProtobufMsg+0x50>)
 80009a6:	f000 fd61 	bl	800146c <HAL_GPIO_WritePin>
 80009aa:	7820      	ldrb	r0, [r4, #0]
 80009ac:	b006      	add	sp, #24
 80009ae:	bd10      	pop	{r4, pc}
 80009b0:	08005bdc 	.word	0x08005bdc
 80009b4:	240000c3 	.word	0x240000c3
 80009b8:	58020400 	.word	0x58020400

080009bc <HAL_MspInit>:
 80009bc:	4b07      	ldr	r3, [pc, #28]	; (80009dc <HAL_MspInit+0x20>)
 80009be:	b082      	sub	sp, #8
 80009c0:	f8d3 2154 	ldr.w	r2, [r3, #340]	; 0x154
 80009c4:	f042 0202 	orr.w	r2, r2, #2
 80009c8:	f8c3 2154 	str.w	r2, [r3, #340]	; 0x154
 80009cc:	f8d3 3154 	ldr.w	r3, [r3, #340]	; 0x154
 80009d0:	f003 0302 	and.w	r3, r3, #2
 80009d4:	9301      	str	r3, [sp, #4]
 80009d6:	9b01      	ldr	r3, [sp, #4]
 80009d8:	b002      	add	sp, #8
 80009da:	4770      	bx	lr
 80009dc:	58024400 	.word	0x58024400

080009e0 <HAL_UART_MspInit>:
 80009e0:	b510      	push	{r4, lr}
 80009e2:	b0b8      	sub	sp, #224	; 0xe0
 80009e4:	2100      	movs	r1, #0
 80009e6:	4604      	mov	r4, r0
 80009e8:	22c0      	movs	r2, #192	; 0xc0
 80009ea:	a808      	add	r0, sp, #32
 80009ec:	9106      	str	r1, [sp, #24]
 80009ee:	e9cd 1102 	strd	r1, r1, [sp, #8]
 80009f2:	e9cd 1104 	strd	r1, r1, [sp, #16]
 80009f6:	f005 f86b 	bl	8005ad0 <memset>
 80009fa:	4b25      	ldr	r3, [pc, #148]	; (8000a90 <HAL_UART_MspInit+0xb0>)
 80009fc:	6822      	ldr	r2, [r4, #0]
 80009fe:	429a      	cmp	r2, r3
 8000a00:	d001      	beq.n	8000a06 <HAL_UART_MspInit+0x26>
 8000a02:	b038      	add	sp, #224	; 0xe0
 8000a04:	bd10      	pop	{r4, pc}
 8000a06:	2202      	movs	r2, #2
 8000a08:	2300      	movs	r3, #0
 8000a0a:	a808      	add	r0, sp, #32
 8000a0c:	e9cd 2308 	strd	r2, r3, [sp, #32]
 8000a10:	f001 fc62 	bl	80022d8 <HAL_RCCEx_PeriphCLKConfig>
 8000a14:	bb80      	cbnz	r0, 8000a78 <HAL_UART_MspInit+0x98>
 8000a16:	4b1f      	ldr	r3, [pc, #124]	; (8000a94 <HAL_UART_MspInit+0xb4>)
 8000a18:	2407      	movs	r4, #7
 8000a1a:	a902      	add	r1, sp, #8
 8000a1c:	481e      	ldr	r0, [pc, #120]	; (8000a98 <HAL_UART_MspInit+0xb8>)
 8000a1e:	f8d3 2148 	ldr.w	r2, [r3, #328]	; 0x148
 8000a22:	f442 2280 	orr.w	r2, r2, #262144	; 0x40000
 8000a26:	f8c3 2148 	str.w	r2, [r3, #328]	; 0x148
 8000a2a:	f8d3 2148 	ldr.w	r2, [r3, #328]	; 0x148
 8000a2e:	f402 2280 	and.w	r2, r2, #262144	; 0x40000
 8000a32:	9200      	str	r2, [sp, #0]
 8000a34:	9a00      	ldr	r2, [sp, #0]
 8000a36:	f8d3 2140 	ldr.w	r2, [r3, #320]	; 0x140
 8000a3a:	f042 0208 	orr.w	r2, r2, #8
 8000a3e:	ed9f 7b10 	vldr	d7, [pc, #64]	; 8000a80 <HAL_UART_MspInit+0xa0>
 8000a42:	f8c3 2140 	str.w	r2, [r3, #320]	; 0x140
 8000a46:	f8d3 3140 	ldr.w	r3, [r3, #320]	; 0x140
 8000a4a:	9406      	str	r4, [sp, #24]
 8000a4c:	f003 0308 	and.w	r3, r3, #8
 8000a50:	ed8d 7b02 	vstr	d7, [sp, #8]
 8000a54:	ed9f 7b0c 	vldr	d7, [pc, #48]	; 8000a88 <HAL_UART_MspInit+0xa8>
 8000a58:	9301      	str	r3, [sp, #4]
 8000a5a:	9b01      	ldr	r3, [sp, #4]
 8000a5c:	ed8d 7b04 	vstr	d7, [sp, #16]
 8000a60:	f000 fbd2 	bl	8001208 <HAL_GPIO_Init>
 8000a64:	2200      	movs	r2, #0
 8000a66:	2027      	movs	r0, #39	; 0x27
 8000a68:	4611      	mov	r1, r2
 8000a6a:	f000 f929 	bl	8000cc0 <HAL_NVIC_SetPriority>
 8000a6e:	2027      	movs	r0, #39	; 0x27
 8000a70:	f000 f964 	bl	8000d3c <HAL_NVIC_EnableIRQ>
 8000a74:	b038      	add	sp, #224	; 0xe0
 8000a76:	bd10      	pop	{r4, pc}
 8000a78:	f7ff ff74 	bl	8000964 <Error_Handler>
 8000a7c:	e7cb      	b.n	8000a16 <HAL_UART_MspInit+0x36>
 8000a7e:	bf00      	nop
 8000a80:	00000300 	.word	0x00000300
 8000a84:	00000002 	.word	0x00000002
	...
 8000a90:	40004800 	.word	0x40004800
 8000a94:	58024400 	.word	0x58024400
 8000a98:	58020c00 	.word	0x58020c00

08000a9c <NMI_Handler>:
 8000a9c:	e7fe      	b.n	8000a9c <NMI_Handler>
 8000a9e:	bf00      	nop

08000aa0 <HardFault_Handler>:
 8000aa0:	e7fe      	b.n	8000aa0 <HardFault_Handler>
 8000aa2:	bf00      	nop

08000aa4 <MemManage_Handler>:
 8000aa4:	e7fe      	b.n	8000aa4 <MemManage_Handler>
 8000aa6:	bf00      	nop

08000aa8 <BusFault_Handler>:
 8000aa8:	e7fe      	b.n	8000aa8 <BusFault_Handler>
 8000aaa:	bf00      	nop

08000aac <UsageFault_Handler>:
 8000aac:	e7fe      	b.n	8000aac <UsageFault_Handler>
 8000aae:	bf00      	nop

08000ab0 <SVC_Handler>:
 8000ab0:	4770      	bx	lr
 8000ab2:	bf00      	nop

08000ab4 <DebugMon_Handler>:
 8000ab4:	4770      	bx	lr
 8000ab6:	bf00      	nop

08000ab8 <PendSV_Handler>:
 8000ab8:	4770      	bx	lr
 8000aba:	bf00      	nop

08000abc <SysTick_Handler>:
 8000abc:	f000 b8dc 	b.w	8000c78 <HAL_IncTick>

08000ac0 <USART3_IRQHandler>:
 8000ac0:	4801      	ldr	r0, [pc, #4]	; (8000ac8 <USART3_IRQHandler+0x8>)
 8000ac2:	f002 bc0f 	b.w	80032e4 <HAL_UART_IRQHandler>
 8000ac6:	bf00      	nop
 8000ac8:	2400002c 	.word	0x2400002c

08000acc <SystemInit>:
 8000acc:	4922      	ldr	r1, [pc, #136]	; (8000b58 <SystemInit+0x8c>)
 8000ace:	4a23      	ldr	r2, [pc, #140]	; (8000b5c <SystemInit+0x90>)
 8000ad0:	f8d1 3088 	ldr.w	r3, [r1, #136]	; 0x88
 8000ad4:	f443 0370 	orr.w	r3, r3, #15728640	; 0xf00000
 8000ad8:	b410      	push	{r4}
 8000ada:	f8c1 3088 	str.w	r3, [r1, #136]	; 0x88
 8000ade:	6813      	ldr	r3, [r2, #0]
 8000ae0:	f003 030f 	and.w	r3, r3, #15
 8000ae4:	2b02      	cmp	r3, #2
 8000ae6:	d805      	bhi.n	8000af4 <SystemInit+0x28>
 8000ae8:	6813      	ldr	r3, [r2, #0]
 8000aea:	f023 030f 	bic.w	r3, r3, #15
 8000aee:	f043 0303 	orr.w	r3, r3, #3
 8000af2:	6013      	str	r3, [r2, #0]
 8000af4:	4b1a      	ldr	r3, [pc, #104]	; (8000b60 <SystemInit+0x94>)
 8000af6:	2400      	movs	r4, #0
 8000af8:	4a1a      	ldr	r2, [pc, #104]	; (8000b64 <SystemInit+0x98>)
 8000afa:	6819      	ldr	r1, [r3, #0]
 8000afc:	4817      	ldr	r0, [pc, #92]	; (8000b5c <SystemInit+0x90>)
 8000afe:	f041 0101 	orr.w	r1, r1, #1
 8000b02:	6019      	str	r1, [r3, #0]
 8000b04:	611c      	str	r4, [r3, #16]
 8000b06:	6819      	ldr	r1, [r3, #0]
 8000b08:	400a      	ands	r2, r1
 8000b0a:	601a      	str	r2, [r3, #0]
 8000b0c:	6803      	ldr	r3, [r0, #0]
 8000b0e:	f013 0f0c 	tst.w	r3, #12
 8000b12:	d005      	beq.n	8000b20 <SystemInit+0x54>
 8000b14:	6803      	ldr	r3, [r0, #0]
 8000b16:	f023 030f 	bic.w	r3, r3, #15
 8000b1a:	f043 0303 	orr.w	r3, r3, #3
 8000b1e:	6003      	str	r3, [r0, #0]
 8000b20:	4b0f      	ldr	r3, [pc, #60]	; (8000b60 <SystemInit+0x94>)
 8000b22:	2200      	movs	r2, #0
 8000b24:	4910      	ldr	r1, [pc, #64]	; (8000b68 <SystemInit+0x9c>)
 8000b26:	4c11      	ldr	r4, [pc, #68]	; (8000b6c <SystemInit+0xa0>)
 8000b28:	4811      	ldr	r0, [pc, #68]	; (8000b70 <SystemInit+0xa4>)
 8000b2a:	619a      	str	r2, [r3, #24]
 8000b2c:	61da      	str	r2, [r3, #28]
 8000b2e:	621a      	str	r2, [r3, #32]
 8000b30:	629c      	str	r4, [r3, #40]	; 0x28
 8000b32:	f243 04d2 	movw	r4, #12498	; 0x30d2
 8000b36:	62d8      	str	r0, [r3, #44]	; 0x2c
 8000b38:	6319      	str	r1, [r3, #48]	; 0x30
 8000b3a:	635a      	str	r2, [r3, #52]	; 0x34
 8000b3c:	6399      	str	r1, [r3, #56]	; 0x38
 8000b3e:	63da      	str	r2, [r3, #60]	; 0x3c
 8000b40:	6419      	str	r1, [r3, #64]	; 0x40
 8000b42:	645a      	str	r2, [r3, #68]	; 0x44
 8000b44:	6819      	ldr	r1, [r3, #0]
 8000b46:	480b      	ldr	r0, [pc, #44]	; (8000b74 <SystemInit+0xa8>)
 8000b48:	f421 2180 	bic.w	r1, r1, #262144	; 0x40000
 8000b4c:	6019      	str	r1, [r3, #0]
 8000b4e:	661a      	str	r2, [r3, #96]	; 0x60
 8000b50:	6004      	str	r4, [r0, #0]
 8000b52:	f85d 4b04 	ldr.w	r4, [sp], #4
 8000b56:	4770      	bx	lr
 8000b58:	e000ed00 	.word	0xe000ed00
 8000b5c:	52002000 	.word	0x52002000
 8000b60:	58024400 	.word	0x58024400
 8000b64:	eaf6ed7f 	.word	0xeaf6ed7f
 8000b68:	01010280 	.word	0x01010280
 8000b6c:	02020200 	.word	0x02020200
 8000b70:	01ff0000 	.word	0x01ff0000
 8000b74:	52004000 	.word	0x52004000

08000b78 <Reset_Handler>:
 8000b78:	f8df d034 	ldr.w	sp, [pc, #52]	; 8000bb0 <LoopFillZerobss+0xe>
 8000b7c:	f7ff ffa6 	bl	8000acc <SystemInit>
 8000b80:	480c      	ldr	r0, [pc, #48]	; (8000bb4 <LoopFillZerobss+0x12>)
 8000b82:	490d      	ldr	r1, [pc, #52]	; (8000bb8 <LoopFillZerobss+0x16>)
 8000b84:	4a0d      	ldr	r2, [pc, #52]	; (8000bbc <LoopFillZerobss+0x1a>)
 8000b86:	2300      	movs	r3, #0
 8000b88:	e002      	b.n	8000b90 <LoopCopyDataInit>

08000b8a <CopyDataInit>:
 8000b8a:	58d4      	ldr	r4, [r2, r3]
 8000b8c:	50c4      	str	r4, [r0, r3]
 8000b8e:	3304      	adds	r3, #4

08000b90 <LoopCopyDataInit>:
 8000b90:	18c4      	adds	r4, r0, r3
 8000b92:	428c      	cmp	r4, r1
 8000b94:	d3f9      	bcc.n	8000b8a <CopyDataInit>
 8000b96:	4a0a      	ldr	r2, [pc, #40]	; (8000bc0 <LoopFillZerobss+0x1e>)
 8000b98:	4c0a      	ldr	r4, [pc, #40]	; (8000bc4 <LoopFillZerobss+0x22>)
 8000b9a:	2300      	movs	r3, #0
 8000b9c:	e001      	b.n	8000ba2 <LoopFillZerobss>

08000b9e <FillZerobss>:
 8000b9e:	6013      	str	r3, [r2, #0]
 8000ba0:	3204      	adds	r2, #4

08000ba2 <LoopFillZerobss>:
 8000ba2:	42a2      	cmp	r2, r4
 8000ba4:	d3fb      	bcc.n	8000b9e <FillZerobss>
 8000ba6:	f004 ff9b 	bl	8005ae0 <__libc_init_array>
 8000baa:	f7ff fd9b 	bl	80006e4 <main>
 8000bae:	4770      	bx	lr
 8000bb0:	24100000 	.word	0x24100000
 8000bb4:	24000000 	.word	0x24000000
 8000bb8:	24000010 	.word	0x24000010
 8000bbc:	08005dc4 	.word	0x08005dc4
 8000bc0:	24000010 	.word	0x24000010
 8000bc4:	240000c8 	.word	0x240000c8

08000bc8 <ADC_IRQHandler>:
 8000bc8:	e7fe      	b.n	8000bc8 <ADC_IRQHandler>
	...

08000bcc <HAL_InitTick>:
 8000bcc:	4b0f      	ldr	r3, [pc, #60]	; (8000c0c <HAL_InitTick+0x40>)
 8000bce:	781b      	ldrb	r3, [r3, #0]
 8000bd0:	b90b      	cbnz	r3, 8000bd6 <HAL_InitTick+0xa>
 8000bd2:	2001      	movs	r0, #1
 8000bd4:	4770      	bx	lr
 8000bd6:	b510      	push	{r4, lr}
 8000bd8:	4604      	mov	r4, r0
 8000bda:	f44f 707a 	mov.w	r0, #1000	; 0x3e8
 8000bde:	4a0c      	ldr	r2, [pc, #48]	; (8000c10 <HAL_InitTick+0x44>)
 8000be0:	fbb0 f3f3 	udiv	r3, r0, r3
 8000be4:	6810      	ldr	r0, [r2, #0]
 8000be6:	fbb0 f0f3 	udiv	r0, r0, r3
 8000bea:	f000 f8b5 	bl	8000d58 <HAL_SYSTICK_Config>
 8000bee:	2c0f      	cmp	r4, #15
 8000bf0:	d800      	bhi.n	8000bf4 <HAL_InitTick+0x28>
 8000bf2:	b108      	cbz	r0, 8000bf8 <HAL_InitTick+0x2c>
 8000bf4:	2001      	movs	r0, #1
 8000bf6:	bd10      	pop	{r4, pc}
 8000bf8:	2200      	movs	r2, #0
 8000bfa:	4621      	mov	r1, r4
 8000bfc:	f04f 30ff 	mov.w	r0, #4294967295
 8000c00:	f000 f85e 	bl	8000cc0 <HAL_NVIC_SetPriority>
 8000c04:	4b03      	ldr	r3, [pc, #12]	; (8000c14 <HAL_InitTick+0x48>)
 8000c06:	2000      	movs	r0, #0
 8000c08:	601c      	str	r4, [r3, #0]
 8000c0a:	bd10      	pop	{r4, pc}
 8000c0c:	24000008 	.word	0x24000008
 8000c10:	24000000 	.word	0x24000000
 8000c14:	2400000c 	.word	0x2400000c

08000c18 <HAL_Init>:
 8000c18:	b510      	push	{r4, lr}
 8000c1a:	2003      	movs	r0, #3
 8000c1c:	4c12      	ldr	r4, [pc, #72]	; (8000c68 <HAL_Init+0x50>)
 8000c1e:	f000 f83d 	bl	8000c9c <HAL_NVIC_SetPriorityGrouping>
 8000c22:	f000 ffcd 	bl	8001bc0 <HAL_RCC_GetSysClockFreq>
 8000c26:	4b11      	ldr	r3, [pc, #68]	; (8000c6c <HAL_Init+0x54>)
 8000c28:	4911      	ldr	r1, [pc, #68]	; (8000c70 <HAL_Init+0x58>)
 8000c2a:	699a      	ldr	r2, [r3, #24]
 8000c2c:	699b      	ldr	r3, [r3, #24]
 8000c2e:	f3c2 2203 	ubfx	r2, r2, #8, #4
 8000c32:	f003 030f 	and.w	r3, r3, #15
 8000c36:	5c8a      	ldrb	r2, [r1, r2]
 8000c38:	5ccb      	ldrb	r3, [r1, r3]
 8000c3a:	f002 021f 	and.w	r2, r2, #31
 8000c3e:	490d      	ldr	r1, [pc, #52]	; (8000c74 <HAL_Init+0x5c>)
 8000c40:	f003 031f 	and.w	r3, r3, #31
 8000c44:	40d0      	lsrs	r0, r2
 8000c46:	fa20 f303 	lsr.w	r3, r0, r3
 8000c4a:	6008      	str	r0, [r1, #0]
 8000c4c:	2000      	movs	r0, #0
 8000c4e:	6023      	str	r3, [r4, #0]
 8000c50:	f7ff ffbc 	bl	8000bcc <HAL_InitTick>
 8000c54:	b110      	cbz	r0, 8000c5c <HAL_Init+0x44>
 8000c56:	2401      	movs	r4, #1
 8000c58:	4620      	mov	r0, r4
 8000c5a:	bd10      	pop	{r4, pc}
 8000c5c:	4604      	mov	r4, r0
 8000c5e:	f7ff fead 	bl	80009bc <HAL_MspInit>
 8000c62:	4620      	mov	r0, r4
 8000c64:	bd10      	pop	{r4, pc}
 8000c66:	bf00      	nop
 8000c68:	24000004 	.word	0x24000004
 8000c6c:	58024400 	.word	0x58024400
 8000c70:	08005b60 	.word	0x08005b60
 8000c74:	24000000 	.word	0x24000000

08000c78 <HAL_IncTick>:
 8000c78:	4a03      	ldr	r2, [pc, #12]	; (8000c88 <HAL_IncTick+0x10>)
 8000c7a:	4b04      	ldr	r3, [pc, #16]	; (8000c8c <HAL_IncTick+0x14>)
 8000c7c:	6811      	ldr	r1, [r2, #0]
 8000c7e:	781b      	ldrb	r3, [r3, #0]
 8000c80:	440b      	add	r3, r1
 8000c82:	6013      	str	r3, [r2, #0]
 8000c84:	4770      	bx	lr
 8000c86:	bf00      	nop
 8000c88:	240000c4 	.word	0x240000c4
 8000c8c:	24000008 	.word	0x24000008

08000c90 <HAL_GetTick>:
 8000c90:	4b01      	ldr	r3, [pc, #4]	; (8000c98 <HAL_GetTick+0x8>)
 8000c92:	6818      	ldr	r0, [r3, #0]
 8000c94:	4770      	bx	lr
 8000c96:	bf00      	nop
 8000c98:	240000c4 	.word	0x240000c4

08000c9c <HAL_NVIC_SetPriorityGrouping>:
 8000c9c:	4906      	ldr	r1, [pc, #24]	; (8000cb8 <HAL_NVIC_SetPriorityGrouping+0x1c>)
 8000c9e:	f64f 0cff 	movw	ip, #63743	; 0xf8ff
 8000ca2:	0200      	lsls	r0, r0, #8
 8000ca4:	4b05      	ldr	r3, [pc, #20]	; (8000cbc <HAL_NVIC_SetPriorityGrouping+0x20>)
 8000ca6:	68ca      	ldr	r2, [r1, #12]
 8000ca8:	f400 60e0 	and.w	r0, r0, #1792	; 0x700
 8000cac:	ea02 020c 	and.w	r2, r2, ip
 8000cb0:	4310      	orrs	r0, r2
 8000cb2:	4303      	orrs	r3, r0
 8000cb4:	60cb      	str	r3, [r1, #12]
 8000cb6:	4770      	bx	lr
 8000cb8:	e000ed00 	.word	0xe000ed00
 8000cbc:	05fa0000 	.word	0x05fa0000

08000cc0 <HAL_NVIC_SetPriority>:
 8000cc0:	4b1b      	ldr	r3, [pc, #108]	; (8000d30 <HAL_NVIC_SetPriority+0x70>)
 8000cc2:	68db      	ldr	r3, [r3, #12]
 8000cc4:	f3c3 2302 	ubfx	r3, r3, #8, #3
 8000cc8:	b500      	push	{lr}
 8000cca:	f1c3 0e07 	rsb	lr, r3, #7
 8000cce:	f103 0c04 	add.w	ip, r3, #4
 8000cd2:	f1be 0f04 	cmp.w	lr, #4
 8000cd6:	bf28      	it	cs
 8000cd8:	f04f 0e04 	movcs.w	lr, #4
 8000cdc:	f1bc 0f06 	cmp.w	ip, #6
 8000ce0:	d91a      	bls.n	8000d18 <HAL_NVIC_SetPriority+0x58>
 8000ce2:	3b03      	subs	r3, #3
 8000ce4:	f04f 3cff 	mov.w	ip, #4294967295
 8000ce8:	fa0c fc03 	lsl.w	ip, ip, r3
 8000cec:	ea22 020c 	bic.w	r2, r2, ip
 8000cf0:	f04f 3cff 	mov.w	ip, #4294967295
 8000cf4:	2800      	cmp	r0, #0
 8000cf6:	fa0c fc0e 	lsl.w	ip, ip, lr
 8000cfa:	ea21 010c 	bic.w	r1, r1, ip
 8000cfe:	fa01 f103 	lsl.w	r1, r1, r3
 8000d02:	ea41 0102 	orr.w	r1, r1, r2
 8000d06:	db0a      	blt.n	8000d1e <HAL_NVIC_SetPriority+0x5e>
 8000d08:	0109      	lsls	r1, r1, #4
 8000d0a:	4b0a      	ldr	r3, [pc, #40]	; (8000d34 <HAL_NVIC_SetPriority+0x74>)
 8000d0c:	b2c9      	uxtb	r1, r1
 8000d0e:	4403      	add	r3, r0
 8000d10:	f883 1300 	strb.w	r1, [r3, #768]	; 0x300
 8000d14:	f85d fb04 	ldr.w	pc, [sp], #4
 8000d18:	2200      	movs	r2, #0
 8000d1a:	4613      	mov	r3, r2
 8000d1c:	e7e8      	b.n	8000cf0 <HAL_NVIC_SetPriority+0x30>
 8000d1e:	f000 000f 	and.w	r0, r0, #15
 8000d22:	0109      	lsls	r1, r1, #4
 8000d24:	4b04      	ldr	r3, [pc, #16]	; (8000d38 <HAL_NVIC_SetPriority+0x78>)
 8000d26:	b2c9      	uxtb	r1, r1
 8000d28:	4403      	add	r3, r0
 8000d2a:	7619      	strb	r1, [r3, #24]
 8000d2c:	f85d fb04 	ldr.w	pc, [sp], #4
 8000d30:	e000ed00 	.word	0xe000ed00
 8000d34:	e000e100 	.word	0xe000e100
 8000d38:	e000ecfc 	.word	0xe000ecfc

08000d3c <HAL_NVIC_EnableIRQ>:
 8000d3c:	2800      	cmp	r0, #0
 8000d3e:	db07      	blt.n	8000d50 <HAL_NVIC_EnableIRQ+0x14>
 8000d40:	2301      	movs	r3, #1
 8000d42:	f000 011f 	and.w	r1, r0, #31
 8000d46:	4a03      	ldr	r2, [pc, #12]	; (8000d54 <HAL_NVIC_EnableIRQ+0x18>)
 8000d48:	0940      	lsrs	r0, r0, #5
 8000d4a:	408b      	lsls	r3, r1
 8000d4c:	f842 3020 	str.w	r3, [r2, r0, lsl #2]
 8000d50:	4770      	bx	lr
 8000d52:	bf00      	nop
 8000d54:	e000e100 	.word	0xe000e100

08000d58 <HAL_SYSTICK_Config>:
 8000d58:	1e43      	subs	r3, r0, #1
 8000d5a:	f1b3 7f80 	cmp.w	r3, #16777216	; 0x1000000
 8000d5e:	d20c      	bcs.n	8000d7a <HAL_SYSTICK_Config+0x22>
 8000d60:	f04f 22e0 	mov.w	r2, #3758153728	; 0xe000e000
 8000d64:	2000      	movs	r0, #0
 8000d66:	4906      	ldr	r1, [pc, #24]	; (8000d80 <HAL_SYSTICK_Config+0x28>)
 8000d68:	f04f 0cf0 	mov.w	ip, #240	; 0xf0
 8000d6c:	6153      	str	r3, [r2, #20]
 8000d6e:	2307      	movs	r3, #7
 8000d70:	f881 c023 	strb.w	ip, [r1, #35]	; 0x23
 8000d74:	6190      	str	r0, [r2, #24]
 8000d76:	6113      	str	r3, [r2, #16]
 8000d78:	4770      	bx	lr
 8000d7a:	2001      	movs	r0, #1
 8000d7c:	4770      	bx	lr
 8000d7e:	bf00      	nop
 8000d80:	e000ed00 	.word	0xe000ed00

08000d84 <HAL_DMA_Abort>:
 8000d84:	b570      	push	{r4, r5, r6, lr}
 8000d86:	4605      	mov	r5, r0
 8000d88:	f7ff ff82 	bl	8000c90 <HAL_GetTick>
 8000d8c:	2d00      	cmp	r5, #0
 8000d8e:	f000 8124 	beq.w	8000fda <HAL_DMA_Abort+0x256>
 8000d92:	f895 3035 	ldrb.w	r3, [r5, #53]	; 0x35
 8000d96:	2b02      	cmp	r3, #2
 8000d98:	f040 80dd 	bne.w	8000f56 <HAL_DMA_Abort+0x1d2>
 8000d9c:	682c      	ldr	r4, [r5, #0]
 8000d9e:	4606      	mov	r6, r0
 8000da0:	4b8f      	ldr	r3, [pc, #572]	; (8000fe0 <HAL_DMA_Abort+0x25c>)
 8000da2:	4890      	ldr	r0, [pc, #576]	; (8000fe4 <HAL_DMA_Abort+0x260>)
 8000da4:	4a90      	ldr	r2, [pc, #576]	; (8000fe8 <HAL_DMA_Abort+0x264>)
 8000da6:	4284      	cmp	r4, r0
 8000da8:	bf18      	it	ne
 8000daa:	429c      	cmpne	r4, r3
 8000dac:	f100 0030 	add.w	r0, r0, #48	; 0x30
 8000db0:	498e      	ldr	r1, [pc, #568]	; (8000fec <HAL_DMA_Abort+0x268>)
 8000db2:	bf0c      	ite	eq
 8000db4:	2301      	moveq	r3, #1
 8000db6:	2300      	movne	r3, #0
 8000db8:	4284      	cmp	r4, r0
 8000dba:	bf08      	it	eq
 8000dbc:	f043 0301 	orreq.w	r3, r3, #1
 8000dc0:	3018      	adds	r0, #24
 8000dc2:	4284      	cmp	r4, r0
 8000dc4:	bf08      	it	eq
 8000dc6:	f043 0301 	orreq.w	r3, r3, #1
 8000dca:	3018      	adds	r0, #24
 8000dcc:	4284      	cmp	r4, r0
 8000dce:	bf08      	it	eq
 8000dd0:	f043 0301 	orreq.w	r3, r3, #1
 8000dd4:	3018      	adds	r0, #24
 8000dd6:	4284      	cmp	r4, r0
 8000dd8:	bf08      	it	eq
 8000dda:	f043 0301 	orreq.w	r3, r3, #1
 8000dde:	f500 7056 	add.w	r0, r0, #856	; 0x358
 8000de2:	4284      	cmp	r4, r0
 8000de4:	bf08      	it	eq
 8000de6:	f043 0301 	orreq.w	r3, r3, #1
 8000dea:	3018      	adds	r0, #24
 8000dec:	4284      	cmp	r4, r0
 8000dee:	bf08      	it	eq
 8000df0:	f043 0301 	orreq.w	r3, r3, #1
 8000df4:	3018      	adds	r0, #24
 8000df6:	4284      	cmp	r4, r0
 8000df8:	bf08      	it	eq
 8000dfa:	f043 0301 	orreq.w	r3, r3, #1
 8000dfe:	3018      	adds	r0, #24
 8000e00:	4284      	cmp	r4, r0
 8000e02:	bf08      	it	eq
 8000e04:	f043 0301 	orreq.w	r3, r3, #1
 8000e08:	3018      	adds	r0, #24
 8000e0a:	4284      	cmp	r4, r0
 8000e0c:	bf08      	it	eq
 8000e0e:	f043 0301 	orreq.w	r3, r3, #1
 8000e12:	3018      	adds	r0, #24
 8000e14:	4284      	cmp	r4, r0
 8000e16:	bf08      	it	eq
 8000e18:	f043 0301 	orreq.w	r3, r3, #1
 8000e1c:	3018      	adds	r0, #24
 8000e1e:	4284      	cmp	r4, r0
 8000e20:	bf08      	it	eq
 8000e22:	f043 0301 	orreq.w	r3, r3, #1
 8000e26:	3018      	adds	r0, #24
 8000e28:	4284      	cmp	r4, r0
 8000e2a:	bf08      	it	eq
 8000e2c:	f043 0301 	orreq.w	r3, r3, #1
 8000e30:	428c      	cmp	r4, r1
 8000e32:	bf18      	it	ne
 8000e34:	4294      	cmpne	r4, r2
 8000e36:	bf0c      	ite	eq
 8000e38:	2201      	moveq	r2, #1
 8000e3a:	2200      	movne	r2, #0
 8000e3c:	d002      	beq.n	8000e44 <HAL_DMA_Abort+0xc0>
 8000e3e:	2b00      	cmp	r3, #0
 8000e40:	f000 8090 	beq.w	8000f64 <HAL_DMA_Abort+0x1e0>
 8000e44:	6821      	ldr	r1, [r4, #0]
 8000e46:	f021 011e 	bic.w	r1, r1, #30
 8000e4a:	6021      	str	r1, [r4, #0]
 8000e4c:	6961      	ldr	r1, [r4, #20]
 8000e4e:	f021 0180 	bic.w	r1, r1, #128	; 0x80
 8000e52:	6161      	str	r1, [r4, #20]
 8000e54:	2a00      	cmp	r2, #0
 8000e56:	f000 80b0 	beq.w	8000fba <HAL_DMA_Abort+0x236>
 8000e5a:	6e2a      	ldr	r2, [r5, #96]	; 0x60
 8000e5c:	6813      	ldr	r3, [r2, #0]
 8000e5e:	f423 7380 	bic.w	r3, r3, #256	; 0x100
 8000e62:	6013      	str	r3, [r2, #0]
 8000e64:	6823      	ldr	r3, [r4, #0]
 8000e66:	f023 0301 	bic.w	r3, r3, #1
 8000e6a:	6023      	str	r3, [r4, #0]
 8000e6c:	e005      	b.n	8000e7a <HAL_DMA_Abort+0xf6>
 8000e6e:	f7ff ff0f 	bl	8000c90 <HAL_GetTick>
 8000e72:	1b83      	subs	r3, r0, r6
 8000e74:	2b05      	cmp	r3, #5
 8000e76:	f200 80a6 	bhi.w	8000fc6 <HAL_DMA_Abort+0x242>
 8000e7a:	6823      	ldr	r3, [r4, #0]
 8000e7c:	07db      	lsls	r3, r3, #31
 8000e7e:	d4f6      	bmi.n	8000e6e <HAL_DMA_Abort+0xea>
 8000e80:	682a      	ldr	r2, [r5, #0]
 8000e82:	4b57      	ldr	r3, [pc, #348]	; (8000fe0 <HAL_DMA_Abort+0x25c>)
 8000e84:	4857      	ldr	r0, [pc, #348]	; (8000fe4 <HAL_DMA_Abort+0x260>)
 8000e86:	495a      	ldr	r1, [pc, #360]	; (8000ff0 <HAL_DMA_Abort+0x26c>)
 8000e88:	4282      	cmp	r2, r0
 8000e8a:	bf18      	it	ne
 8000e8c:	429a      	cmpne	r2, r3
 8000e8e:	f100 0048 	add.w	r0, r0, #72	; 0x48
 8000e92:	bf0c      	ite	eq
 8000e94:	2301      	moveq	r3, #1
 8000e96:	2300      	movne	r3, #0
 8000e98:	428a      	cmp	r2, r1
 8000e9a:	bf08      	it	eq
 8000e9c:	f043 0301 	orreq.w	r3, r3, #1
 8000ea0:	3130      	adds	r1, #48	; 0x30
 8000ea2:	4282      	cmp	r2, r0
 8000ea4:	bf08      	it	eq
 8000ea6:	f043 0301 	orreq.w	r3, r3, #1
 8000eaa:	3030      	adds	r0, #48	; 0x30
 8000eac:	428a      	cmp	r2, r1
 8000eae:	bf08      	it	eq
 8000eb0:	f043 0301 	orreq.w	r3, r3, #1
 8000eb4:	f501 715c 	add.w	r1, r1, #880	; 0x370
 8000eb8:	4282      	cmp	r2, r0
 8000eba:	bf08      	it	eq
 8000ebc:	f043 0301 	orreq.w	r3, r3, #1
 8000ec0:	f500 705c 	add.w	r0, r0, #880	; 0x370
 8000ec4:	428a      	cmp	r2, r1
 8000ec6:	bf08      	it	eq
 8000ec8:	f043 0301 	orreq.w	r3, r3, #1
 8000ecc:	3130      	adds	r1, #48	; 0x30
 8000ece:	4282      	cmp	r2, r0
 8000ed0:	bf08      	it	eq
 8000ed2:	f043 0301 	orreq.w	r3, r3, #1
 8000ed6:	3030      	adds	r0, #48	; 0x30
 8000ed8:	428a      	cmp	r2, r1
 8000eda:	bf08      	it	eq
 8000edc:	f043 0301 	orreq.w	r3, r3, #1
 8000ee0:	3130      	adds	r1, #48	; 0x30
 8000ee2:	4282      	cmp	r2, r0
 8000ee4:	bf08      	it	eq
 8000ee6:	f043 0301 	orreq.w	r3, r3, #1
 8000eea:	3030      	adds	r0, #48	; 0x30
 8000eec:	428a      	cmp	r2, r1
 8000eee:	bf08      	it	eq
 8000ef0:	f043 0301 	orreq.w	r3, r3, #1
 8000ef4:	3130      	adds	r1, #48	; 0x30
 8000ef6:	4282      	cmp	r2, r0
 8000ef8:	bf08      	it	eq
 8000efa:	f043 0301 	orreq.w	r3, r3, #1
 8000efe:	428a      	cmp	r2, r1
 8000f00:	bf08      	it	eq
 8000f02:	f043 0301 	orreq.w	r3, r3, #1
 8000f06:	3118      	adds	r1, #24
 8000f08:	428a      	cmp	r2, r1
 8000f0a:	bf08      	it	eq
 8000f0c:	f043 0301 	orreq.w	r3, r3, #1
 8000f10:	b933      	cbnz	r3, 8000f20 <HAL_DMA_Abort+0x19c>
 8000f12:	f5a1 6195 	sub.w	r1, r1, #1192	; 0x4a8
 8000f16:	4b35      	ldr	r3, [pc, #212]	; (8000fec <HAL_DMA_Abort+0x268>)
 8000f18:	429a      	cmp	r2, r3
 8000f1a:	bf18      	it	ne
 8000f1c:	428a      	cmpne	r2, r1
 8000f1e:	d16f      	bne.n	8001000 <HAL_DMA_Abort+0x27c>
 8000f20:	6dea      	ldr	r2, [r5, #92]	; 0x5c
 8000f22:	233f      	movs	r3, #63	; 0x3f
 8000f24:	6da9      	ldr	r1, [r5, #88]	; 0x58
 8000f26:	f002 021f 	and.w	r2, r2, #31
 8000f2a:	4093      	lsls	r3, r2
 8000f2c:	608b      	str	r3, [r1, #8]
 8000f2e:	6eeb      	ldr	r3, [r5, #108]	; 0x6c
 8000f30:	e9d5 2119 	ldrd	r2, r1, [r5, #100]	; 0x64
 8000f34:	6051      	str	r1, [r2, #4]
 8000f36:	b133      	cbz	r3, 8000f46 <HAL_DMA_Abort+0x1c2>
 8000f38:	681a      	ldr	r2, [r3, #0]
 8000f3a:	e9d5 101c 	ldrd	r1, r0, [r5, #112]	; 0x70
 8000f3e:	f422 7280 	bic.w	r2, r2, #256	; 0x100
 8000f42:	601a      	str	r2, [r3, #0]
 8000f44:	6048      	str	r0, [r1, #4]
 8000f46:	2300      	movs	r3, #0
 8000f48:	2201      	movs	r2, #1
 8000f4a:	4618      	mov	r0, r3
 8000f4c:	f885 2035 	strb.w	r2, [r5, #53]	; 0x35
 8000f50:	f885 3034 	strb.w	r3, [r5, #52]	; 0x34
 8000f54:	bd70      	pop	{r4, r5, r6, pc}
 8000f56:	2280      	movs	r2, #128	; 0x80
 8000f58:	2300      	movs	r3, #0
 8000f5a:	2001      	movs	r0, #1
 8000f5c:	656a      	str	r2, [r5, #84]	; 0x54
 8000f5e:	f885 3034 	strb.w	r3, [r5, #52]	; 0x34
 8000f62:	bd70      	pop	{r4, r5, r6, pc}
 8000f64:	6822      	ldr	r2, [r4, #0]
 8000f66:	4923      	ldr	r1, [pc, #140]	; (8000ff4 <HAL_DMA_Abort+0x270>)
 8000f68:	f022 020e 	bic.w	r2, r2, #14
 8000f6c:	6022      	str	r2, [r4, #0]
 8000f6e:	4a22      	ldr	r2, [pc, #136]	; (8000ff8 <HAL_DMA_Abort+0x274>)
 8000f70:	428c      	cmp	r4, r1
 8000f72:	bf18      	it	ne
 8000f74:	4294      	cmpne	r4, r2
 8000f76:	f101 0128 	add.w	r1, r1, #40	; 0x28
 8000f7a:	bf0c      	ite	eq
 8000f7c:	2201      	moveq	r2, #1
 8000f7e:	2200      	movne	r2, #0
 8000f80:	428c      	cmp	r4, r1
 8000f82:	bf08      	it	eq
 8000f84:	f042 0201 	orreq.w	r2, r2, #1
 8000f88:	3114      	adds	r1, #20
 8000f8a:	428c      	cmp	r4, r1
 8000f8c:	bf08      	it	eq
 8000f8e:	f042 0201 	orreq.w	r2, r2, #1
 8000f92:	3114      	adds	r1, #20
 8000f94:	428c      	cmp	r4, r1
 8000f96:	bf08      	it	eq
 8000f98:	f042 0201 	orreq.w	r2, r2, #1
 8000f9c:	3114      	adds	r1, #20
 8000f9e:	428c      	cmp	r4, r1
 8000fa0:	bf08      	it	eq
 8000fa2:	f042 0201 	orreq.w	r2, r2, #1
 8000fa6:	3114      	adds	r1, #20
 8000fa8:	428c      	cmp	r4, r1
 8000faa:	bf08      	it	eq
 8000fac:	f042 0201 	orreq.w	r2, r2, #1
 8000fb0:	b91a      	cbnz	r2, 8000fba <HAL_DMA_Abort+0x236>
 8000fb2:	4a12      	ldr	r2, [pc, #72]	; (8000ffc <HAL_DMA_Abort+0x278>)
 8000fb4:	4294      	cmp	r4, r2
 8000fb6:	f47f af55 	bne.w	8000e64 <HAL_DMA_Abort+0xe0>
 8000fba:	6e29      	ldr	r1, [r5, #96]	; 0x60
 8000fbc:	680a      	ldr	r2, [r1, #0]
 8000fbe:	f422 7280 	bic.w	r2, r2, #256	; 0x100
 8000fc2:	600a      	str	r2, [r1, #0]
 8000fc4:	e74e      	b.n	8000e64 <HAL_DMA_Abort+0xe0>
 8000fc6:	2120      	movs	r1, #32
 8000fc8:	2203      	movs	r2, #3
 8000fca:	2300      	movs	r3, #0
 8000fcc:	2001      	movs	r0, #1
 8000fce:	6569      	str	r1, [r5, #84]	; 0x54
 8000fd0:	f885 3034 	strb.w	r3, [r5, #52]	; 0x34
 8000fd4:	f885 2035 	strb.w	r2, [r5, #53]	; 0x35
 8000fd8:	bd70      	pop	{r4, r5, r6, pc}
 8000fda:	2001      	movs	r0, #1
 8000fdc:	bd70      	pop	{r4, r5, r6, pc}
 8000fde:	bf00      	nop
 8000fe0:	40020058 	.word	0x40020058
 8000fe4:	40020040 	.word	0x40020040
 8000fe8:	40020010 	.word	0x40020010
 8000fec:	40020028 	.word	0x40020028
 8000ff0:	40020070 	.word	0x40020070
 8000ff4:	58025408 	.word	0x58025408
 8000ff8:	5802541c 	.word	0x5802541c
 8000ffc:	58025494 	.word	0x58025494
 8001000:	6de8      	ldr	r0, [r5, #92]	; 0x5c
 8001002:	2101      	movs	r1, #1
 8001004:	4b16      	ldr	r3, [pc, #88]	; (8001060 <HAL_DMA_Abort+0x2dc>)
 8001006:	f000 001f 	and.w	r0, r0, #31
 800100a:	4c16      	ldr	r4, [pc, #88]	; (8001064 <HAL_DMA_Abort+0x2e0>)
 800100c:	4081      	lsls	r1, r0
 800100e:	42a2      	cmp	r2, r4
 8001010:	bf18      	it	ne
 8001012:	429a      	cmpne	r2, r3
 8001014:	6da8      	ldr	r0, [r5, #88]	; 0x58
 8001016:	bf0c      	ite	eq
 8001018:	2301      	moveq	r3, #1
 800101a:	2300      	movne	r3, #0
 800101c:	6041      	str	r1, [r0, #4]
 800101e:	4812      	ldr	r0, [pc, #72]	; (8001068 <HAL_DMA_Abort+0x2e4>)
 8001020:	4912      	ldr	r1, [pc, #72]	; (800106c <HAL_DMA_Abort+0x2e8>)
 8001022:	4282      	cmp	r2, r0
 8001024:	bf08      	it	eq
 8001026:	f043 0301 	orreq.w	r3, r3, #1
 800102a:	3028      	adds	r0, #40	; 0x28
 800102c:	428a      	cmp	r2, r1
 800102e:	bf08      	it	eq
 8001030:	f043 0301 	orreq.w	r3, r3, #1
 8001034:	3128      	adds	r1, #40	; 0x28
 8001036:	4282      	cmp	r2, r0
 8001038:	bf08      	it	eq
 800103a:	f043 0301 	orreq.w	r3, r3, #1
 800103e:	428a      	cmp	r2, r1
 8001040:	bf08      	it	eq
 8001042:	f043 0301 	orreq.w	r3, r3, #1
 8001046:	3114      	adds	r1, #20
 8001048:	428a      	cmp	r2, r1
 800104a:	bf08      	it	eq
 800104c:	f043 0301 	orreq.w	r3, r3, #1
 8001050:	2b00      	cmp	r3, #0
 8001052:	f47f af6c 	bne.w	8000f2e <HAL_DMA_Abort+0x1aa>
 8001056:	4b06      	ldr	r3, [pc, #24]	; (8001070 <HAL_DMA_Abort+0x2ec>)
 8001058:	429a      	cmp	r2, r3
 800105a:	f43f af68 	beq.w	8000f2e <HAL_DMA_Abort+0x1aa>
 800105e:	e772      	b.n	8000f46 <HAL_DMA_Abort+0x1c2>
 8001060:	5802541c 	.word	0x5802541c
 8001064:	58025408 	.word	0x58025408
 8001068:	58025430 	.word	0x58025430
 800106c:	58025444 	.word	0x58025444
 8001070:	58025494 	.word	0x58025494

08001074 <HAL_DMA_Abort_IT>:
 8001074:	2800      	cmp	r0, #0
 8001076:	d05f      	beq.n	8001138 <HAL_DMA_Abort_IT+0xc4>
 8001078:	b538      	push	{r3, r4, r5, lr}
 800107a:	f890 2035 	ldrb.w	r2, [r0, #53]	; 0x35
 800107e:	4603      	mov	r3, r0
 8001080:	2a02      	cmp	r2, #2
 8001082:	d155      	bne.n	8001130 <HAL_DMA_Abort_IT+0xbc>
 8001084:	6801      	ldr	r1, [r0, #0]
 8001086:	4a57      	ldr	r2, [pc, #348]	; (80011e4 <HAL_DMA_Abort_IT+0x170>)
 8001088:	4291      	cmp	r1, r2
 800108a:	d048      	beq.n	800111e <HAL_DMA_Abort_IT+0xaa>
 800108c:	3218      	adds	r2, #24
 800108e:	4291      	cmp	r1, r2
 8001090:	d045      	beq.n	800111e <HAL_DMA_Abort_IT+0xaa>
 8001092:	3230      	adds	r2, #48	; 0x30
 8001094:	4c54      	ldr	r4, [pc, #336]	; (80011e8 <HAL_DMA_Abort_IT+0x174>)
 8001096:	4855      	ldr	r0, [pc, #340]	; (80011ec <HAL_DMA_Abort_IT+0x178>)
 8001098:	42a1      	cmp	r1, r4
 800109a:	bf18      	it	ne
 800109c:	4291      	cmpne	r1, r2
 800109e:	f104 0448 	add.w	r4, r4, #72	; 0x48
 80010a2:	bf0c      	ite	eq
 80010a4:	2201      	moveq	r2, #1
 80010a6:	2200      	movne	r2, #0
 80010a8:	4281      	cmp	r1, r0
 80010aa:	bf08      	it	eq
 80010ac:	f042 0201 	orreq.w	r2, r2, #1
 80010b0:	3030      	adds	r0, #48	; 0x30
 80010b2:	42a1      	cmp	r1, r4
 80010b4:	bf08      	it	eq
 80010b6:	f042 0201 	orreq.w	r2, r2, #1
 80010ba:	3430      	adds	r4, #48	; 0x30
 80010bc:	4281      	cmp	r1, r0
 80010be:	bf08      	it	eq
 80010c0:	f042 0201 	orreq.w	r2, r2, #1
 80010c4:	f500 705c 	add.w	r0, r0, #880	; 0x370
 80010c8:	42a1      	cmp	r1, r4
 80010ca:	bf08      	it	eq
 80010cc:	f042 0201 	orreq.w	r2, r2, #1
 80010d0:	f504 745c 	add.w	r4, r4, #880	; 0x370
 80010d4:	4281      	cmp	r1, r0
 80010d6:	bf08      	it	eq
 80010d8:	f042 0201 	orreq.w	r2, r2, #1
 80010dc:	3030      	adds	r0, #48	; 0x30
 80010de:	42a1      	cmp	r1, r4
 80010e0:	bf08      	it	eq
 80010e2:	f042 0201 	orreq.w	r2, r2, #1
 80010e6:	3430      	adds	r4, #48	; 0x30
 80010e8:	4281      	cmp	r1, r0
 80010ea:	bf08      	it	eq
 80010ec:	f042 0201 	orreq.w	r2, r2, #1
 80010f0:	3030      	adds	r0, #48	; 0x30
 80010f2:	42a1      	cmp	r1, r4
 80010f4:	bf08      	it	eq
 80010f6:	f042 0201 	orreq.w	r2, r2, #1
 80010fa:	3430      	adds	r4, #48	; 0x30
 80010fc:	4281      	cmp	r1, r0
 80010fe:	bf08      	it	eq
 8001100:	f042 0201 	orreq.w	r2, r2, #1
 8001104:	3030      	adds	r0, #48	; 0x30
 8001106:	42a1      	cmp	r1, r4
 8001108:	bf08      	it	eq
 800110a:	f042 0201 	orreq.w	r2, r2, #1
 800110e:	4281      	cmp	r1, r0
 8001110:	bf08      	it	eq
 8001112:	f042 0201 	orreq.w	r2, r2, #1
 8001116:	b912      	cbnz	r2, 800111e <HAL_DMA_Abort_IT+0xaa>
 8001118:	4a35      	ldr	r2, [pc, #212]	; (80011f0 <HAL_DMA_Abort_IT+0x17c>)
 800111a:	4291      	cmp	r1, r2
 800111c:	d10e      	bne.n	800113c <HAL_DMA_Abort_IT+0xc8>
 800111e:	2204      	movs	r2, #4
 8001120:	2000      	movs	r0, #0
 8001122:	f883 2035 	strb.w	r2, [r3, #53]	; 0x35
 8001126:	680b      	ldr	r3, [r1, #0]
 8001128:	f023 0301 	bic.w	r3, r3, #1
 800112c:	600b      	str	r3, [r1, #0]
 800112e:	bd38      	pop	{r3, r4, r5, pc}
 8001130:	2280      	movs	r2, #128	; 0x80
 8001132:	2001      	movs	r0, #1
 8001134:	655a      	str	r2, [r3, #84]	; 0x54
 8001136:	bd38      	pop	{r3, r4, r5, pc}
 8001138:	2001      	movs	r0, #1
 800113a:	4770      	bx	lr
 800113c:	4a2d      	ldr	r2, [pc, #180]	; (80011f4 <HAL_DMA_Abort_IT+0x180>)
 800113e:	4d2e      	ldr	r5, [pc, #184]	; (80011f8 <HAL_DMA_Abort_IT+0x184>)
 8001140:	6808      	ldr	r0, [r1, #0]
 8001142:	42a9      	cmp	r1, r5
 8001144:	bf18      	it	ne
 8001146:	4291      	cmpne	r1, r2
 8001148:	4c2c      	ldr	r4, [pc, #176]	; (80011fc <HAL_DMA_Abort_IT+0x188>)
 800114a:	f020 000e 	bic.w	r0, r0, #14
 800114e:	f105 053c 	add.w	r5, r5, #60	; 0x3c
 8001152:	bf0c      	ite	eq
 8001154:	2201      	moveq	r2, #1
 8001156:	2200      	movne	r2, #0
 8001158:	6008      	str	r0, [r1, #0]
 800115a:	42a1      	cmp	r1, r4
 800115c:	bf08      	it	eq
 800115e:	f042 0201 	orreq.w	r2, r2, #1
 8001162:	6808      	ldr	r0, [r1, #0]
 8001164:	3428      	adds	r4, #40	; 0x28
 8001166:	42a9      	cmp	r1, r5
 8001168:	bf08      	it	eq
 800116a:	f042 0201 	orreq.w	r2, r2, #1
 800116e:	f020 0001 	bic.w	r0, r0, #1
 8001172:	42a1      	cmp	r1, r4
 8001174:	bf08      	it	eq
 8001176:	f042 0201 	orreq.w	r2, r2, #1
 800117a:	3414      	adds	r4, #20
 800117c:	6008      	str	r0, [r1, #0]
 800117e:	42a1      	cmp	r1, r4
 8001180:	bf08      	it	eq
 8001182:	f042 0201 	orreq.w	r2, r2, #1
 8001186:	481e      	ldr	r0, [pc, #120]	; (8001200 <HAL_DMA_Abort_IT+0x18c>)
 8001188:	4281      	cmp	r1, r0
 800118a:	bf08      	it	eq
 800118c:	f042 0201 	orreq.w	r2, r2, #1
 8001190:	b912      	cbnz	r2, 8001198 <HAL_DMA_Abort_IT+0x124>
 8001192:	4a1c      	ldr	r2, [pc, #112]	; (8001204 <HAL_DMA_Abort_IT+0x190>)
 8001194:	4291      	cmp	r1, r2
 8001196:	d117      	bne.n	80011c8 <HAL_DMA_Abort_IT+0x154>
 8001198:	2201      	movs	r2, #1
 800119a:	6d9d      	ldr	r5, [r3, #88]	; 0x58
 800119c:	e9d3 0417 	ldrd	r0, r4, [r3, #92]	; 0x5c
 80011a0:	6821      	ldr	r1, [r4, #0]
 80011a2:	f000 001f 	and.w	r0, r0, #31
 80011a6:	f421 7180 	bic.w	r1, r1, #256	; 0x100
 80011aa:	4082      	lsls	r2, r0
 80011ac:	6021      	str	r1, [r4, #0]
 80011ae:	606a      	str	r2, [r5, #4]
 80011b0:	6eda      	ldr	r2, [r3, #108]	; 0x6c
 80011b2:	e9d3 1019 	ldrd	r1, r0, [r3, #100]	; 0x64
 80011b6:	6048      	str	r0, [r1, #4]
 80011b8:	b132      	cbz	r2, 80011c8 <HAL_DMA_Abort_IT+0x154>
 80011ba:	6811      	ldr	r1, [r2, #0]
 80011bc:	e9d3 041c 	ldrd	r0, r4, [r3, #112]	; 0x70
 80011c0:	f421 7180 	bic.w	r1, r1, #256	; 0x100
 80011c4:	6011      	str	r1, [r2, #0]
 80011c6:	6044      	str	r4, [r0, #4]
 80011c8:	2101      	movs	r1, #1
 80011ca:	2400      	movs	r4, #0
 80011cc:	6d1a      	ldr	r2, [r3, #80]	; 0x50
 80011ce:	f883 1035 	strb.w	r1, [r3, #53]	; 0x35
 80011d2:	f883 4034 	strb.w	r4, [r3, #52]	; 0x34
 80011d6:	b11a      	cbz	r2, 80011e0 <HAL_DMA_Abort_IT+0x16c>
 80011d8:	4618      	mov	r0, r3
 80011da:	4790      	blx	r2
 80011dc:	4620      	mov	r0, r4
 80011de:	bd38      	pop	{r3, r4, r5, pc}
 80011e0:	4610      	mov	r0, r2
 80011e2:	bd38      	pop	{r3, r4, r5, pc}
 80011e4:	40020010 	.word	0x40020010
 80011e8:	40020040 	.word	0x40020040
 80011ec:	40020070 	.word	0x40020070
 80011f0:	400204b8 	.word	0x400204b8
 80011f4:	5802541c 	.word	0x5802541c
 80011f8:	58025408 	.word	0x58025408
 80011fc:	58025430 	.word	0x58025430
 8001200:	58025480 	.word	0x58025480
 8001204:	58025494 	.word	0x58025494

08001208 <HAL_GPIO_Init>:
 8001208:	e92d 4ff0 	stmdb	sp!, {r4, r5, r6, r7, r8, r9, sl, fp, lr}
 800120c:	680c      	ldr	r4, [r1, #0]
 800120e:	b083      	sub	sp, #12
 8001210:	2c00      	cmp	r4, #0
 8001212:	f000 80a7 	beq.w	8001364 <HAL_GPIO_Init+0x15c>
 8001216:	f04f 0c00 	mov.w	ip, #0
 800121a:	4f8a      	ldr	r7, [pc, #552]	; (8001444 <HAL_GPIO_Init+0x23c>)
 800121c:	4663      	mov	r3, ip
 800121e:	2201      	movs	r2, #1
 8001220:	409a      	lsls	r2, r3
 8001222:	ea12 0e04 	ands.w	lr, r2, r4
 8001226:	f000 8096 	beq.w	8001356 <HAL_GPIO_Init+0x14e>
 800122a:	684d      	ldr	r5, [r1, #4]
 800122c:	f005 0903 	and.w	r9, r5, #3
 8001230:	f109 36ff 	add.w	r6, r9, #4294967295
 8001234:	2e01      	cmp	r6, #1
 8001236:	f240 8098 	bls.w	800136a <HAL_GPIO_Init+0x162>
 800123a:	f1b9 0f03 	cmp.w	r9, #3
 800123e:	f040 80d2 	bne.w	80013e6 <HAL_GPIO_Init+0x1de>
 8001242:	fa09 f20c 	lsl.w	r2, r9, ip
 8001246:	ea6f 0802 	mvn.w	r8, r2
 800124a:	6806      	ldr	r6, [r0, #0]
 800124c:	f415 3f40 	tst.w	r5, #196608	; 0x30000
 8001250:	ea06 0608 	and.w	r6, r6, r8
 8001254:	ea42 0206 	orr.w	r2, r2, r6
 8001258:	6002      	str	r2, [r0, #0]
 800125a:	d07c      	beq.n	8001356 <HAL_GPIO_Init+0x14e>
 800125c:	f8d7 2154 	ldr.w	r2, [r7, #340]	; 0x154
 8001260:	f023 0803 	bic.w	r8, r3, #3
 8001264:	f003 0903 	and.w	r9, r3, #3
 8001268:	260f      	movs	r6, #15
 800126a:	f042 0202 	orr.w	r2, r2, #2
 800126e:	f108 48b0 	add.w	r8, r8, #1476395008	; 0x58000000
 8001272:	ea4f 0989 	mov.w	r9, r9, lsl #2
 8001276:	f8c7 2154 	str.w	r2, [r7, #340]	; 0x154
 800127a:	f508 6880 	add.w	r8, r8, #1024	; 0x400
 800127e:	f8d7 2154 	ldr.w	r2, [r7, #340]	; 0x154
 8001282:	fa06 f609 	lsl.w	r6, r6, r9
 8001286:	f002 0202 	and.w	r2, r2, #2
 800128a:	9201      	str	r2, [sp, #4]
 800128c:	9a01      	ldr	r2, [sp, #4]
 800128e:	f8d8 2008 	ldr.w	r2, [r8, #8]
 8001292:	ea22 0206 	bic.w	r2, r2, r6
 8001296:	4e6c      	ldr	r6, [pc, #432]	; (8001448 <HAL_GPIO_Init+0x240>)
 8001298:	42b0      	cmp	r0, r6
 800129a:	d028      	beq.n	80012ee <HAL_GPIO_Init+0xe6>
 800129c:	f506 6680 	add.w	r6, r6, #1024	; 0x400
 80012a0:	42b0      	cmp	r0, r6
 80012a2:	f000 80ac 	beq.w	80013fe <HAL_GPIO_Init+0x1f6>
 80012a6:	4e69      	ldr	r6, [pc, #420]	; (800144c <HAL_GPIO_Init+0x244>)
 80012a8:	42b0      	cmp	r0, r6
 80012aa:	f000 80ad 	beq.w	8001408 <HAL_GPIO_Init+0x200>
 80012ae:	4e68      	ldr	r6, [pc, #416]	; (8001450 <HAL_GPIO_Init+0x248>)
 80012b0:	42b0      	cmp	r0, r6
 80012b2:	f000 809f 	beq.w	80013f4 <HAL_GPIO_Init+0x1ec>
 80012b6:	4e67      	ldr	r6, [pc, #412]	; (8001454 <HAL_GPIO_Init+0x24c>)
 80012b8:	42b0      	cmp	r0, r6
 80012ba:	f000 80af 	beq.w	800141c <HAL_GPIO_Init+0x214>
 80012be:	4e66      	ldr	r6, [pc, #408]	; (8001458 <HAL_GPIO_Init+0x250>)
 80012c0:	42b0      	cmp	r0, r6
 80012c2:	f000 80b0 	beq.w	8001426 <HAL_GPIO_Init+0x21e>
 80012c6:	4e65      	ldr	r6, [pc, #404]	; (800145c <HAL_GPIO_Init+0x254>)
 80012c8:	42b0      	cmp	r0, r6
 80012ca:	f000 80a2 	beq.w	8001412 <HAL_GPIO_Init+0x20a>
 80012ce:	4e64      	ldr	r6, [pc, #400]	; (8001460 <HAL_GPIO_Init+0x258>)
 80012d0:	42b0      	cmp	r0, r6
 80012d2:	f000 80ad 	beq.w	8001430 <HAL_GPIO_Init+0x228>
 80012d6:	4e63      	ldr	r6, [pc, #396]	; (8001464 <HAL_GPIO_Init+0x25c>)
 80012d8:	42b0      	cmp	r0, r6
 80012da:	f000 80ae 	beq.w	800143a <HAL_GPIO_Init+0x232>
 80012de:	4e62      	ldr	r6, [pc, #392]	; (8001468 <HAL_GPIO_Init+0x260>)
 80012e0:	42b0      	cmp	r0, r6
 80012e2:	bf0c      	ite	eq
 80012e4:	2609      	moveq	r6, #9
 80012e6:	260a      	movne	r6, #10
 80012e8:	fa06 f609 	lsl.w	r6, r6, r9
 80012ec:	4332      	orrs	r2, r6
 80012ee:	f8c8 2008 	str.w	r2, [r8, #8]
 80012f2:	f04f 42b0 	mov.w	r2, #1476395008	; 0x58000000
 80012f6:	f415 1f80 	tst.w	r5, #1048576	; 0x100000
 80012fa:	ea6f 060e 	mvn.w	r6, lr
 80012fe:	6812      	ldr	r2, [r2, #0]
 8001300:	f04f 48b0 	mov.w	r8, #1476395008	; 0x58000000
 8001304:	bf0c      	ite	eq
 8001306:	4032      	andeq	r2, r6
 8001308:	ea4e 0202 	orrne.w	r2, lr, r2
 800130c:	f415 1f00 	tst.w	r5, #2097152	; 0x200000
 8001310:	f8c8 2000 	str.w	r2, [r8]
 8001314:	f8d8 2004 	ldr.w	r2, [r8, #4]
 8001318:	f04f 48b0 	mov.w	r8, #1476395008	; 0x58000000
 800131c:	bf0c      	ite	eq
 800131e:	4032      	andeq	r2, r6
 8001320:	ea4e 0202 	orrne.w	r2, lr, r2
 8001324:	f415 3f00 	tst.w	r5, #131072	; 0x20000
 8001328:	f8c8 2004 	str.w	r2, [r8, #4]
 800132c:	f8d8 2084 	ldr.w	r2, [r8, #132]	; 0x84
 8001330:	f04f 48b0 	mov.w	r8, #1476395008	; 0x58000000
 8001334:	bf0c      	ite	eq
 8001336:	4032      	andeq	r2, r6
 8001338:	ea4e 0202 	orrne.w	r2, lr, r2
 800133c:	03ed      	lsls	r5, r5, #15
 800133e:	f04f 45b0 	mov.w	r5, #1476395008	; 0x58000000
 8001342:	f8c8 2084 	str.w	r2, [r8, #132]	; 0x84
 8001346:	f8d8 2080 	ldr.w	r2, [r8, #128]	; 0x80
 800134a:	bf54      	ite	pl
 800134c:	4032      	andpl	r2, r6
 800134e:	ea4e 0202 	orrmi.w	r2, lr, r2
 8001352:	f8c5 2080 	str.w	r2, [r5, #128]	; 0x80
 8001356:	3301      	adds	r3, #1
 8001358:	f10c 0c02 	add.w	ip, ip, #2
 800135c:	fa34 f203 	lsrs.w	r2, r4, r3
 8001360:	f47f af5d 	bne.w	800121e <HAL_GPIO_Init+0x16>
 8001364:	b003      	add	sp, #12
 8001366:	e8bd 8ff0 	ldmia.w	sp!, {r4, r5, r6, r7, r8, r9, sl, fp, pc}
 800136a:	f04f 0803 	mov.w	r8, #3
 800136e:	6886      	ldr	r6, [r0, #8]
 8001370:	fa08 f80c 	lsl.w	r8, r8, ip
 8001374:	ea26 0a08 	bic.w	sl, r6, r8
 8001378:	68ce      	ldr	r6, [r1, #12]
 800137a:	ea6f 0808 	mvn.w	r8, r8
 800137e:	fa06 f60c 	lsl.w	r6, r6, ip
 8001382:	ea46 060a 	orr.w	r6, r6, sl
 8001386:	6086      	str	r6, [r0, #8]
 8001388:	f3c5 1600 	ubfx	r6, r5, #4, #1
 800138c:	f8d0 a004 	ldr.w	sl, [r0, #4]
 8001390:	409e      	lsls	r6, r3
 8001392:	ea2a 0202 	bic.w	r2, sl, r2
 8001396:	4332      	orrs	r2, r6
 8001398:	6042      	str	r2, [r0, #4]
 800139a:	68c2      	ldr	r2, [r0, #12]
 800139c:	f1b9 0f02 	cmp.w	r9, #2
 80013a0:	688e      	ldr	r6, [r1, #8]
 80013a2:	ea02 0208 	and.w	r2, r2, r8
 80013a6:	fa06 f60c 	lsl.w	r6, r6, ip
 80013aa:	ea46 0602 	orr.w	r6, r6, r2
 80013ae:	fa09 f20c 	lsl.w	r2, r9, ip
 80013b2:	60c6      	str	r6, [r0, #12]
 80013b4:	f47f af49 	bne.w	800124a <HAL_GPIO_Init+0x42>
 80013b8:	ea4f 09d3 	mov.w	r9, r3, lsr #3
 80013bc:	f003 0b07 	and.w	fp, r3, #7
 80013c0:	260f      	movs	r6, #15
 80013c2:	eb00 0989 	add.w	r9, r0, r9, lsl #2
 80013c6:	ea4f 0b8b 	mov.w	fp, fp, lsl #2
 80013ca:	f8d9 a020 	ldr.w	sl, [r9, #32]
 80013ce:	fa06 f60b 	lsl.w	r6, r6, fp
 80013d2:	ea2a 0a06 	bic.w	sl, sl, r6
 80013d6:	690e      	ldr	r6, [r1, #16]
 80013d8:	fa06 f60b 	lsl.w	r6, r6, fp
 80013dc:	ea46 060a 	orr.w	r6, r6, sl
 80013e0:	f8c9 6020 	str.w	r6, [r9, #32]
 80013e4:	e731      	b.n	800124a <HAL_GPIO_Init+0x42>
 80013e6:	f04f 0803 	mov.w	r8, #3
 80013ea:	fa08 f80c 	lsl.w	r8, r8, ip
 80013ee:	ea6f 0808 	mvn.w	r8, r8
 80013f2:	e7d2      	b.n	800139a <HAL_GPIO_Init+0x192>
 80013f4:	2603      	movs	r6, #3
 80013f6:	fa06 f609 	lsl.w	r6, r6, r9
 80013fa:	4332      	orrs	r2, r6
 80013fc:	e777      	b.n	80012ee <HAL_GPIO_Init+0xe6>
 80013fe:	2601      	movs	r6, #1
 8001400:	fa06 f609 	lsl.w	r6, r6, r9
 8001404:	4332      	orrs	r2, r6
 8001406:	e772      	b.n	80012ee <HAL_GPIO_Init+0xe6>
 8001408:	2602      	movs	r6, #2
 800140a:	fa06 f609 	lsl.w	r6, r6, r9
 800140e:	4332      	orrs	r2, r6
 8001410:	e76d      	b.n	80012ee <HAL_GPIO_Init+0xe6>
 8001412:	2606      	movs	r6, #6
 8001414:	fa06 f609 	lsl.w	r6, r6, r9
 8001418:	4332      	orrs	r2, r6
 800141a:	e768      	b.n	80012ee <HAL_GPIO_Init+0xe6>
 800141c:	2604      	movs	r6, #4
 800141e:	fa06 f609 	lsl.w	r6, r6, r9
 8001422:	4332      	orrs	r2, r6
 8001424:	e763      	b.n	80012ee <HAL_GPIO_Init+0xe6>
 8001426:	2605      	movs	r6, #5
 8001428:	fa06 f609 	lsl.w	r6, r6, r9
 800142c:	4332      	orrs	r2, r6
 800142e:	e75e      	b.n	80012ee <HAL_GPIO_Init+0xe6>
 8001430:	2607      	movs	r6, #7
 8001432:	fa06 f609 	lsl.w	r6, r6, r9
 8001436:	4332      	orrs	r2, r6
 8001438:	e759      	b.n	80012ee <HAL_GPIO_Init+0xe6>
 800143a:	2608      	movs	r6, #8
 800143c:	fa06 f609 	lsl.w	r6, r6, r9
 8001440:	4332      	orrs	r2, r6
 8001442:	e754      	b.n	80012ee <HAL_GPIO_Init+0xe6>
 8001444:	58024400 	.word	0x58024400
 8001448:	58020000 	.word	0x58020000
 800144c:	58020800 	.word	0x58020800
 8001450:	58020c00 	.word	0x58020c00
 8001454:	58021000 	.word	0x58021000
 8001458:	58021400 	.word	0x58021400
 800145c:	58021800 	.word	0x58021800
 8001460:	58021c00 	.word	0x58021c00
 8001464:	58022000 	.word	0x58022000
 8001468:	58022400 	.word	0x58022400

0800146c <HAL_GPIO_WritePin>:
 800146c:	b902      	cbnz	r2, 8001470 <HAL_GPIO_WritePin+0x4>
 800146e:	0409      	lsls	r1, r1, #16
 8001470:	6181      	str	r1, [r0, #24]
 8001472:	4770      	bx	lr

08001474 <HAL_PWREx_ConfigSupply>:
 8001474:	b570      	push	{r4, r5, r6, lr}
 8001476:	4c1c      	ldr	r4, [pc, #112]	; (80014e8 <HAL_PWREx_ConfigSupply+0x74>)
 8001478:	4605      	mov	r5, r0
 800147a:	68e3      	ldr	r3, [r4, #12]
 800147c:	f003 0307 	and.w	r3, r3, #7
 8001480:	2b06      	cmp	r3, #6
 8001482:	68e3      	ldr	r3, [r4, #12]
 8001484:	d005      	beq.n	8001492 <HAL_PWREx_ConfigSupply+0x1e>
 8001486:	f003 033f 	and.w	r3, r3, #63	; 0x3f
 800148a:	1a18      	subs	r0, r3, r0
 800148c:	bf18      	it	ne
 800148e:	2001      	movne	r0, #1
 8001490:	bd70      	pop	{r4, r5, r6, pc}
 8001492:	f023 033f 	bic.w	r3, r3, #63	; 0x3f
 8001496:	4303      	orrs	r3, r0
 8001498:	60e3      	str	r3, [r4, #12]
 800149a:	f7ff fbf9 	bl	8000c90 <HAL_GetTick>
 800149e:	4606      	mov	r6, r0
 80014a0:	e005      	b.n	80014ae <HAL_PWREx_ConfigSupply+0x3a>
 80014a2:	f7ff fbf5 	bl	8000c90 <HAL_GetTick>
 80014a6:	1b83      	subs	r3, r0, r6
 80014a8:	f5b3 7f7a 	cmp.w	r3, #1000	; 0x3e8
 80014ac:	d81a      	bhi.n	80014e4 <HAL_PWREx_ConfigSupply+0x70>
 80014ae:	6863      	ldr	r3, [r4, #4]
 80014b0:	049a      	lsls	r2, r3, #18
 80014b2:	d5f6      	bpl.n	80014a2 <HAL_PWREx_ConfigSupply+0x2e>
 80014b4:	f1a5 031d 	sub.w	r3, r5, #29
 80014b8:	2b01      	cmp	r3, #1
 80014ba:	d904      	bls.n	80014c6 <HAL_PWREx_ConfigSupply+0x52>
 80014bc:	3d2d      	subs	r5, #45	; 0x2d
 80014be:	2d01      	cmp	r5, #1
 80014c0:	d901      	bls.n	80014c6 <HAL_PWREx_ConfigSupply+0x52>
 80014c2:	2000      	movs	r0, #0
 80014c4:	bd70      	pop	{r4, r5, r6, pc}
 80014c6:	f7ff fbe3 	bl	8000c90 <HAL_GetTick>
 80014ca:	4d07      	ldr	r5, [pc, #28]	; (80014e8 <HAL_PWREx_ConfigSupply+0x74>)
 80014cc:	4604      	mov	r4, r0
 80014ce:	e005      	b.n	80014dc <HAL_PWREx_ConfigSupply+0x68>
 80014d0:	f7ff fbde 	bl	8000c90 <HAL_GetTick>
 80014d4:	1b00      	subs	r0, r0, r4
 80014d6:	f5b0 7f7a 	cmp.w	r0, #1000	; 0x3e8
 80014da:	d803      	bhi.n	80014e4 <HAL_PWREx_ConfigSupply+0x70>
 80014dc:	68eb      	ldr	r3, [r5, #12]
 80014de:	03db      	lsls	r3, r3, #15
 80014e0:	d5f6      	bpl.n	80014d0 <HAL_PWREx_ConfigSupply+0x5c>
 80014e2:	e7ee      	b.n	80014c2 <HAL_PWREx_ConfigSupply+0x4e>
 80014e4:	2001      	movs	r0, #1
 80014e6:	bd70      	pop	{r4, r5, r6, pc}
 80014e8:	58024800 	.word	0x58024800

080014ec <HAL_RCC_GetSysClockFreq.part.0>:
 80014ec:	4b3b      	ldr	r3, [pc, #236]	; (80015dc <HAL_RCC_GetSysClockFreq.part.0+0xf0>)
 80014ee:	b430      	push	{r4, r5}
 80014f0:	6a9a      	ldr	r2, [r3, #40]	; 0x28
 80014f2:	6a9c      	ldr	r4, [r3, #40]	; 0x28
 80014f4:	6add      	ldr	r5, [r3, #44]	; 0x2c
 80014f6:	f414 7f7c 	tst.w	r4, #1008	; 0x3f0
 80014fa:	6b59      	ldr	r1, [r3, #52]	; 0x34
 80014fc:	f3c4 1005 	ubfx	r0, r4, #4, #6
 8001500:	d038      	beq.n	8001574 <HAL_RCC_GetSysClockFreq.part.0+0x88>
 8001502:	f3c1 01cc 	ubfx	r1, r1, #3, #13
 8001506:	f005 0501 	and.w	r5, r5, #1
 800150a:	f002 0203 	and.w	r2, r2, #3
 800150e:	fb05 f101 	mul.w	r1, r5, r1
 8001512:	2a01      	cmp	r2, #1
 8001514:	ee07 1a90 	vmov	s15, r1
 8001518:	eeb8 7ae7 	vcvt.f32.s32	s14, s15
 800151c:	d002      	beq.n	8001524 <HAL_RCC_GetSysClockFreq.part.0+0x38>
 800151e:	2a02      	cmp	r2, #2
 8001520:	d04e      	beq.n	80015c0 <HAL_RCC_GetSysClockFreq.part.0+0xd4>
 8001522:	b34a      	cbz	r2, 8001578 <HAL_RCC_GetSysClockFreq.part.0+0x8c>
 8001524:	ee07 0a90 	vmov	s15, r0
 8001528:	ed9f 5a2d 	vldr	s10, [pc, #180]	; 80015e0 <HAL_RCC_GetSysClockFreq.part.0+0xf4>
 800152c:	eef8 7ae7 	vcvt.f32.s32	s15, s15
 8001530:	6b1b      	ldr	r3, [r3, #48]	; 0x30
 8001532:	eec5 6a27 	vdiv.f32	s13, s10, s15
 8001536:	eddf 5a2b 	vldr	s11, [pc, #172]	; 80015e4 <HAL_RCC_GetSysClockFreq.part.0+0xf8>
 800153a:	f3c3 0308 	ubfx	r3, r3, #0, #9
 800153e:	ee07 3a90 	vmov	s15, r3
 8001542:	eeb7 6a00 	vmov.f32	s12, #112	; 0x3f800000  1.0
 8001546:	eef8 7ae7 	vcvt.f32.s32	s15, s15
 800154a:	eee7 7a25 	vfma.f32	s15, s14, s11
 800154e:	ee77 7a86 	vadd.f32	s15, s15, s12
 8001552:	ee66 6aa7 	vmul.f32	s13, s13, s15
 8001556:	4b21      	ldr	r3, [pc, #132]	; (80015dc <HAL_RCC_GetSysClockFreq.part.0+0xf0>)
 8001558:	6b1b      	ldr	r3, [r3, #48]	; 0x30
 800155a:	f3c3 2346 	ubfx	r3, r3, #9, #7
 800155e:	3301      	adds	r3, #1
 8001560:	ee07 3a90 	vmov	s15, r3
 8001564:	eeb8 7ae7 	vcvt.f32.s32	s14, s15
 8001568:	eec6 7a87 	vdiv.f32	s15, s13, s14
 800156c:	eefc 7ae7 	vcvt.u32.f32	s15, s15
 8001570:	ee17 0a90 	vmov	r0, s15
 8001574:	bc30      	pop	{r4, r5}
 8001576:	4770      	bx	lr
 8001578:	681a      	ldr	r2, [r3, #0]
 800157a:	0692      	lsls	r2, r2, #26
 800157c:	d527      	bpl.n	80015ce <HAL_RCC_GetSysClockFreq.part.0+0xe2>
 800157e:	6819      	ldr	r1, [r3, #0]
 8001580:	ee07 0a90 	vmov	s15, r0
 8001584:	4a18      	ldr	r2, [pc, #96]	; (80015e8 <HAL_RCC_GetSysClockFreq.part.0+0xfc>)
 8001586:	eef7 5a00 	vmov.f32	s11, #112	; 0x3f800000  1.0
 800158a:	6b1b      	ldr	r3, [r3, #48]	; 0x30
 800158c:	f3c1 01c1 	ubfx	r1, r1, #3, #2
 8001590:	eef8 7ae7 	vcvt.f32.s32	s15, s15
 8001594:	ed9f 5a13 	vldr	s10, [pc, #76]	; 80015e4 <HAL_RCC_GetSysClockFreq.part.0+0xf8>
 8001598:	f3c3 0308 	ubfx	r3, r3, #0, #9
 800159c:	40ca      	lsrs	r2, r1
 800159e:	ee06 3a90 	vmov	s13, r3
 80015a2:	ee06 2a10 	vmov	s12, r2
 80015a6:	eef8 6ae6 	vcvt.f32.s32	s13, s13
 80015aa:	eeb8 6ac6 	vcvt.f32.s32	s12, s12
 80015ae:	eee7 6a05 	vfma.f32	s13, s14, s10
 80015b2:	ee86 7a27 	vdiv.f32	s14, s12, s15
 80015b6:	ee76 6aa5 	vadd.f32	s13, s13, s11
 80015ba:	ee66 6a87 	vmul.f32	s13, s13, s14
 80015be:	e7ca      	b.n	8001556 <HAL_RCC_GetSysClockFreq.part.0+0x6a>
 80015c0:	ee07 0a90 	vmov	s15, r0
 80015c4:	ed9f 5a09 	vldr	s10, [pc, #36]	; 80015ec <HAL_RCC_GetSysClockFreq.part.0+0x100>
 80015c8:	eef8 7ae7 	vcvt.f32.s32	s15, s15
 80015cc:	e7b0      	b.n	8001530 <HAL_RCC_GetSysClockFreq.part.0+0x44>
 80015ce:	ee07 0a90 	vmov	s15, r0
 80015d2:	ed9f 5a07 	vldr	s10, [pc, #28]	; 80015f0 <HAL_RCC_GetSysClockFreq.part.0+0x104>
 80015d6:	eef8 7ae7 	vcvt.f32.s32	s15, s15
 80015da:	e7a9      	b.n	8001530 <HAL_RCC_GetSysClockFreq.part.0+0x44>
 80015dc:	58024400 	.word	0x58024400
 80015e0:	4a742400 	.word	0x4a742400
 80015e4:	39000000 	.word	0x39000000
 80015e8:	03d09000 	.word	0x03d09000
 80015ec:	4af42400 	.word	0x4af42400
 80015f0:	4c742400 	.word	0x4c742400

080015f4 <HAL_RCC_OscConfig>:
 80015f4:	2800      	cmp	r0, #0
 80015f6:	f000 81ce 	beq.w	8001996 <HAL_RCC_OscConfig+0x3a2>
 80015fa:	b5f8      	push	{r3, r4, r5, r6, r7, lr}
 80015fc:	6803      	ldr	r3, [r0, #0]
 80015fe:	4604      	mov	r4, r0
 8001600:	07d9      	lsls	r1, r3, #31
 8001602:	d53b      	bpl.n	800167c <HAL_RCC_OscConfig+0x88>
 8001604:	4996      	ldr	r1, [pc, #600]	; (8001860 <HAL_RCC_OscConfig+0x26c>)
 8001606:	690a      	ldr	r2, [r1, #16]
 8001608:	6a89      	ldr	r1, [r1, #40]	; 0x28
 800160a:	f002 0238 	and.w	r2, r2, #56	; 0x38
 800160e:	2a10      	cmp	r2, #16
 8001610:	f000 80fd 	beq.w	800180e <HAL_RCC_OscConfig+0x21a>
 8001614:	2a18      	cmp	r2, #24
 8001616:	f000 80f5 	beq.w	8001804 <HAL_RCC_OscConfig+0x210>
 800161a:	6863      	ldr	r3, [r4, #4]
 800161c:	f5b3 3f80 	cmp.w	r3, #65536	; 0x10000
 8001620:	d018      	beq.n	8001654 <HAL_RCC_OscConfig+0x60>
 8001622:	2b00      	cmp	r3, #0
 8001624:	f000 8154 	beq.w	80018d0 <HAL_RCC_OscConfig+0x2dc>
 8001628:	f5b3 2fa0 	cmp.w	r3, #327680	; 0x50000
 800162c:	f000 8274 	beq.w	8001b18 <HAL_RCC_OscConfig+0x524>
 8001630:	f5b3 1fa8 	cmp.w	r3, #1376256	; 0x150000
 8001634:	4b8a      	ldr	r3, [pc, #552]	; (8001860 <HAL_RCC_OscConfig+0x26c>)
 8001636:	681a      	ldr	r2, [r3, #0]
 8001638:	f000 8214 	beq.w	8001a64 <HAL_RCC_OscConfig+0x470>
 800163c:	f422 3280 	bic.w	r2, r2, #65536	; 0x10000
 8001640:	601a      	str	r2, [r3, #0]
 8001642:	681a      	ldr	r2, [r3, #0]
 8001644:	f422 2280 	bic.w	r2, r2, #262144	; 0x40000
 8001648:	601a      	str	r2, [r3, #0]
 800164a:	681a      	ldr	r2, [r3, #0]
 800164c:	f422 1280 	bic.w	r2, r2, #1048576	; 0x100000
 8001650:	601a      	str	r2, [r3, #0]
 8001652:	e004      	b.n	800165e <HAL_RCC_OscConfig+0x6a>
 8001654:	4a82      	ldr	r2, [pc, #520]	; (8001860 <HAL_RCC_OscConfig+0x26c>)
 8001656:	6813      	ldr	r3, [r2, #0]
 8001658:	f443 3380 	orr.w	r3, r3, #65536	; 0x10000
 800165c:	6013      	str	r3, [r2, #0]
 800165e:	f7ff fb17 	bl	8000c90 <HAL_GetTick>
 8001662:	4e7f      	ldr	r6, [pc, #508]	; (8001860 <HAL_RCC_OscConfig+0x26c>)
 8001664:	4605      	mov	r5, r0
 8001666:	e005      	b.n	8001674 <HAL_RCC_OscConfig+0x80>
 8001668:	f7ff fb12 	bl	8000c90 <HAL_GetTick>
 800166c:	1b40      	subs	r0, r0, r5
 800166e:	2864      	cmp	r0, #100	; 0x64
 8001670:	f200 812c 	bhi.w	80018cc <HAL_RCC_OscConfig+0x2d8>
 8001674:	6833      	ldr	r3, [r6, #0]
 8001676:	039b      	lsls	r3, r3, #14
 8001678:	d5f6      	bpl.n	8001668 <HAL_RCC_OscConfig+0x74>
 800167a:	6823      	ldr	r3, [r4, #0]
 800167c:	079d      	lsls	r5, r3, #30
 800167e:	d47e      	bmi.n	800177e <HAL_RCC_OscConfig+0x18a>
 8001680:	06d9      	lsls	r1, r3, #27
 8001682:	d528      	bpl.n	80016d6 <HAL_RCC_OscConfig+0xe2>
 8001684:	4976      	ldr	r1, [pc, #472]	; (8001860 <HAL_RCC_OscConfig+0x26c>)
 8001686:	690a      	ldr	r2, [r1, #16]
 8001688:	6a89      	ldr	r1, [r1, #40]	; 0x28
 800168a:	f002 0238 	and.w	r2, r2, #56	; 0x38
 800168e:	2a08      	cmp	r2, #8
 8001690:	f000 80cd 	beq.w	800182e <HAL_RCC_OscConfig+0x23a>
 8001694:	2a18      	cmp	r2, #24
 8001696:	f000 80c5 	beq.w	8001824 <HAL_RCC_OscConfig+0x230>
 800169a:	69e3      	ldr	r3, [r4, #28]
 800169c:	4d70      	ldr	r5, [pc, #448]	; (8001860 <HAL_RCC_OscConfig+0x26c>)
 800169e:	2b00      	cmp	r3, #0
 80016a0:	f000 8152 	beq.w	8001948 <HAL_RCC_OscConfig+0x354>
 80016a4:	682b      	ldr	r3, [r5, #0]
 80016a6:	f043 0380 	orr.w	r3, r3, #128	; 0x80
 80016aa:	602b      	str	r3, [r5, #0]
 80016ac:	f7ff faf0 	bl	8000c90 <HAL_GetTick>
 80016b0:	4606      	mov	r6, r0
 80016b2:	e005      	b.n	80016c0 <HAL_RCC_OscConfig+0xcc>
 80016b4:	f7ff faec 	bl	8000c90 <HAL_GetTick>
 80016b8:	1b80      	subs	r0, r0, r6
 80016ba:	2802      	cmp	r0, #2
 80016bc:	f200 8106 	bhi.w	80018cc <HAL_RCC_OscConfig+0x2d8>
 80016c0:	682b      	ldr	r3, [r5, #0]
 80016c2:	05db      	lsls	r3, r3, #23
 80016c4:	d5f6      	bpl.n	80016b4 <HAL_RCC_OscConfig+0xc0>
 80016c6:	68eb      	ldr	r3, [r5, #12]
 80016c8:	6a22      	ldr	r2, [r4, #32]
 80016ca:	f023 537c 	bic.w	r3, r3, #1056964608	; 0x3f000000
 80016ce:	ea43 6302 	orr.w	r3, r3, r2, lsl #24
 80016d2:	60eb      	str	r3, [r5, #12]
 80016d4:	6823      	ldr	r3, [r4, #0]
 80016d6:	071d      	lsls	r5, r3, #28
 80016d8:	d516      	bpl.n	8001708 <HAL_RCC_OscConfig+0x114>
 80016da:	6963      	ldr	r3, [r4, #20]
 80016dc:	4d60      	ldr	r5, [pc, #384]	; (8001860 <HAL_RCC_OscConfig+0x26c>)
 80016de:	2b00      	cmp	r3, #0
 80016e0:	f000 8110 	beq.w	8001904 <HAL_RCC_OscConfig+0x310>
 80016e4:	6f6b      	ldr	r3, [r5, #116]	; 0x74
 80016e6:	f043 0301 	orr.w	r3, r3, #1
 80016ea:	676b      	str	r3, [r5, #116]	; 0x74
 80016ec:	f7ff fad0 	bl	8000c90 <HAL_GetTick>
 80016f0:	4606      	mov	r6, r0
 80016f2:	e005      	b.n	8001700 <HAL_RCC_OscConfig+0x10c>
 80016f4:	f7ff facc 	bl	8000c90 <HAL_GetTick>
 80016f8:	1b80      	subs	r0, r0, r6
 80016fa:	2802      	cmp	r0, #2
 80016fc:	f200 80e6 	bhi.w	80018cc <HAL_RCC_OscConfig+0x2d8>
 8001700:	6f6b      	ldr	r3, [r5, #116]	; 0x74
 8001702:	0798      	lsls	r0, r3, #30
 8001704:	d5f6      	bpl.n	80016f4 <HAL_RCC_OscConfig+0x100>
 8001706:	6823      	ldr	r3, [r4, #0]
 8001708:	069a      	lsls	r2, r3, #26
 800170a:	d516      	bpl.n	800173a <HAL_RCC_OscConfig+0x146>
 800170c:	69a3      	ldr	r3, [r4, #24]
 800170e:	4d54      	ldr	r5, [pc, #336]	; (8001860 <HAL_RCC_OscConfig+0x26c>)
 8001710:	2b00      	cmp	r3, #0
 8001712:	f000 8108 	beq.w	8001926 <HAL_RCC_OscConfig+0x332>
 8001716:	682b      	ldr	r3, [r5, #0]
 8001718:	f443 5380 	orr.w	r3, r3, #4096	; 0x1000
 800171c:	602b      	str	r3, [r5, #0]
 800171e:	f7ff fab7 	bl	8000c90 <HAL_GetTick>
 8001722:	4606      	mov	r6, r0
 8001724:	e005      	b.n	8001732 <HAL_RCC_OscConfig+0x13e>
 8001726:	f7ff fab3 	bl	8000c90 <HAL_GetTick>
 800172a:	1b80      	subs	r0, r0, r6
 800172c:	2802      	cmp	r0, #2
 800172e:	f200 80cd 	bhi.w	80018cc <HAL_RCC_OscConfig+0x2d8>
 8001732:	682b      	ldr	r3, [r5, #0]
 8001734:	049f      	lsls	r7, r3, #18
 8001736:	d5f6      	bpl.n	8001726 <HAL_RCC_OscConfig+0x132>
 8001738:	6823      	ldr	r3, [r4, #0]
 800173a:	0759      	lsls	r1, r3, #29
 800173c:	f100 8087 	bmi.w	800184e <HAL_RCC_OscConfig+0x25a>
 8001740:	6a60      	ldr	r0, [r4, #36]	; 0x24
 8001742:	b1d0      	cbz	r0, 800177a <HAL_RCC_OscConfig+0x186>
 8001744:	4d46      	ldr	r5, [pc, #280]	; (8001860 <HAL_RCC_OscConfig+0x26c>)
 8001746:	692b      	ldr	r3, [r5, #16]
 8001748:	f003 0338 	and.w	r3, r3, #56	; 0x38
 800174c:	2b18      	cmp	r3, #24
 800174e:	f000 8195 	beq.w	8001a7c <HAL_RCC_OscConfig+0x488>
 8001752:	682b      	ldr	r3, [r5, #0]
 8001754:	2802      	cmp	r0, #2
 8001756:	f023 7380 	bic.w	r3, r3, #16777216	; 0x1000000
 800175a:	602b      	str	r3, [r5, #0]
 800175c:	f000 811d 	beq.w	800199a <HAL_RCC_OscConfig+0x3a6>
 8001760:	f7ff fa96 	bl	8000c90 <HAL_GetTick>
 8001764:	4604      	mov	r4, r0
 8001766:	e005      	b.n	8001774 <HAL_RCC_OscConfig+0x180>
 8001768:	f7ff fa92 	bl	8000c90 <HAL_GetTick>
 800176c:	1b00      	subs	r0, r0, r4
 800176e:	2802      	cmp	r0, #2
 8001770:	f200 80ac 	bhi.w	80018cc <HAL_RCC_OscConfig+0x2d8>
 8001774:	682b      	ldr	r3, [r5, #0]
 8001776:	019b      	lsls	r3, r3, #6
 8001778:	d4f6      	bmi.n	8001768 <HAL_RCC_OscConfig+0x174>
 800177a:	2000      	movs	r0, #0
 800177c:	bdf8      	pop	{r3, r4, r5, r6, r7, pc}
 800177e:	4a38      	ldr	r2, [pc, #224]	; (8001860 <HAL_RCC_OscConfig+0x26c>)
 8001780:	6913      	ldr	r3, [r2, #16]
 8001782:	6a92      	ldr	r2, [r2, #40]	; 0x28
 8001784:	f013 0338 	ands.w	r3, r3, #56	; 0x38
 8001788:	d122      	bne.n	80017d0 <HAL_RCC_OscConfig+0x1dc>
 800178a:	4b35      	ldr	r3, [pc, #212]	; (8001860 <HAL_RCC_OscConfig+0x26c>)
 800178c:	68e2      	ldr	r2, [r4, #12]
 800178e:	681b      	ldr	r3, [r3, #0]
 8001790:	0759      	lsls	r1, r3, #29
 8001792:	d501      	bpl.n	8001798 <HAL_RCC_OscConfig+0x1a4>
 8001794:	2a00      	cmp	r2, #0
 8001796:	d043      	beq.n	8001820 <HAL_RCC_OscConfig+0x22c>
 8001798:	4d31      	ldr	r5, [pc, #196]	; (8001860 <HAL_RCC_OscConfig+0x26c>)
 800179a:	682b      	ldr	r3, [r5, #0]
 800179c:	f023 0319 	bic.w	r3, r3, #25
 80017a0:	4313      	orrs	r3, r2
 80017a2:	602b      	str	r3, [r5, #0]
 80017a4:	f7ff fa74 	bl	8000c90 <HAL_GetTick>
 80017a8:	4606      	mov	r6, r0
 80017aa:	e005      	b.n	80017b8 <HAL_RCC_OscConfig+0x1c4>
 80017ac:	f7ff fa70 	bl	8000c90 <HAL_GetTick>
 80017b0:	1b80      	subs	r0, r0, r6
 80017b2:	2802      	cmp	r0, #2
 80017b4:	f200 808a 	bhi.w	80018cc <HAL_RCC_OscConfig+0x2d8>
 80017b8:	682b      	ldr	r3, [r5, #0]
 80017ba:	075b      	lsls	r3, r3, #29
 80017bc:	d5f6      	bpl.n	80017ac <HAL_RCC_OscConfig+0x1b8>
 80017be:	686b      	ldr	r3, [r5, #4]
 80017c0:	6922      	ldr	r2, [r4, #16]
 80017c2:	f023 43fe 	bic.w	r3, r3, #2130706432	; 0x7f000000
 80017c6:	ea43 6302 	orr.w	r3, r3, r2, lsl #24
 80017ca:	606b      	str	r3, [r5, #4]
 80017cc:	6823      	ldr	r3, [r4, #0]
 80017ce:	e757      	b.n	8001680 <HAL_RCC_OscConfig+0x8c>
 80017d0:	2b18      	cmp	r3, #24
 80017d2:	f000 80dc 	beq.w	800198e <HAL_RCC_OscConfig+0x39a>
 80017d6:	4d22      	ldr	r5, [pc, #136]	; (8001860 <HAL_RCC_OscConfig+0x26c>)
 80017d8:	68e2      	ldr	r2, [r4, #12]
 80017da:	682b      	ldr	r3, [r5, #0]
 80017dc:	2a00      	cmp	r2, #0
 80017de:	f000 80c5 	beq.w	800196c <HAL_RCC_OscConfig+0x378>
 80017e2:	f023 0319 	bic.w	r3, r3, #25
 80017e6:	4313      	orrs	r3, r2
 80017e8:	602b      	str	r3, [r5, #0]
 80017ea:	f7ff fa51 	bl	8000c90 <HAL_GetTick>
 80017ee:	4606      	mov	r6, r0
 80017f0:	e004      	b.n	80017fc <HAL_RCC_OscConfig+0x208>
 80017f2:	f7ff fa4d 	bl	8000c90 <HAL_GetTick>
 80017f6:	1b80      	subs	r0, r0, r6
 80017f8:	2802      	cmp	r0, #2
 80017fa:	d867      	bhi.n	80018cc <HAL_RCC_OscConfig+0x2d8>
 80017fc:	682b      	ldr	r3, [r5, #0]
 80017fe:	075f      	lsls	r7, r3, #29
 8001800:	d5f7      	bpl.n	80017f2 <HAL_RCC_OscConfig+0x1fe>
 8001802:	e7dc      	b.n	80017be <HAL_RCC_OscConfig+0x1ca>
 8001804:	f001 0103 	and.w	r1, r1, #3
 8001808:	2902      	cmp	r1, #2
 800180a:	f47f af06 	bne.w	800161a <HAL_RCC_OscConfig+0x26>
 800180e:	4a14      	ldr	r2, [pc, #80]	; (8001860 <HAL_RCC_OscConfig+0x26c>)
 8001810:	6812      	ldr	r2, [r2, #0]
 8001812:	0392      	lsls	r2, r2, #14
 8001814:	f57f af32 	bpl.w	800167c <HAL_RCC_OscConfig+0x88>
 8001818:	6862      	ldr	r2, [r4, #4]
 800181a:	2a00      	cmp	r2, #0
 800181c:	f47f af2e 	bne.w	800167c <HAL_RCC_OscConfig+0x88>
 8001820:	2001      	movs	r0, #1
 8001822:	bdf8      	pop	{r3, r4, r5, r6, r7, pc}
 8001824:	f001 0103 	and.w	r1, r1, #3
 8001828:	2901      	cmp	r1, #1
 800182a:	f47f af36 	bne.w	800169a <HAL_RCC_OscConfig+0xa6>
 800182e:	4a0c      	ldr	r2, [pc, #48]	; (8001860 <HAL_RCC_OscConfig+0x26c>)
 8001830:	6812      	ldr	r2, [r2, #0]
 8001832:	05d2      	lsls	r2, r2, #23
 8001834:	d502      	bpl.n	800183c <HAL_RCC_OscConfig+0x248>
 8001836:	69e2      	ldr	r2, [r4, #28]
 8001838:	2a80      	cmp	r2, #128	; 0x80
 800183a:	d1f1      	bne.n	8001820 <HAL_RCC_OscConfig+0x22c>
 800183c:	4908      	ldr	r1, [pc, #32]	; (8001860 <HAL_RCC_OscConfig+0x26c>)
 800183e:	6a20      	ldr	r0, [r4, #32]
 8001840:	68ca      	ldr	r2, [r1, #12]
 8001842:	f022 527c 	bic.w	r2, r2, #1056964608	; 0x3f000000
 8001846:	ea42 6200 	orr.w	r2, r2, r0, lsl #24
 800184a:	60ca      	str	r2, [r1, #12]
 800184c:	e743      	b.n	80016d6 <HAL_RCC_OscConfig+0xe2>
 800184e:	4d05      	ldr	r5, [pc, #20]	; (8001864 <HAL_RCC_OscConfig+0x270>)
 8001850:	682b      	ldr	r3, [r5, #0]
 8001852:	f443 7380 	orr.w	r3, r3, #256	; 0x100
 8001856:	602b      	str	r3, [r5, #0]
 8001858:	f7ff fa1a 	bl	8000c90 <HAL_GetTick>
 800185c:	4606      	mov	r6, r0
 800185e:	e008      	b.n	8001872 <HAL_RCC_OscConfig+0x27e>
 8001860:	58024400 	.word	0x58024400
 8001864:	58024800 	.word	0x58024800
 8001868:	f7ff fa12 	bl	8000c90 <HAL_GetTick>
 800186c:	1b80      	subs	r0, r0, r6
 800186e:	2864      	cmp	r0, #100	; 0x64
 8001870:	d82c      	bhi.n	80018cc <HAL_RCC_OscConfig+0x2d8>
 8001872:	682b      	ldr	r3, [r5, #0]
 8001874:	05da      	lsls	r2, r3, #23
 8001876:	d5f7      	bpl.n	8001868 <HAL_RCC_OscConfig+0x274>
 8001878:	68a3      	ldr	r3, [r4, #8]
 800187a:	2b01      	cmp	r3, #1
 800187c:	f000 817d 	beq.w	8001b7a <HAL_RCC_OscConfig+0x586>
 8001880:	2b00      	cmp	r3, #0
 8001882:	f000 815d 	beq.w	8001b40 <HAL_RCC_OscConfig+0x54c>
 8001886:	2b05      	cmp	r3, #5
 8001888:	f000 817d 	beq.w	8001b86 <HAL_RCC_OscConfig+0x592>
 800188c:	2b85      	cmp	r3, #133	; 0x85
 800188e:	4ba9      	ldr	r3, [pc, #676]	; (8001b34 <HAL_RCC_OscConfig+0x540>)
 8001890:	6f1a      	ldr	r2, [r3, #112]	; 0x70
 8001892:	f000 8186 	beq.w	8001ba2 <HAL_RCC_OscConfig+0x5ae>
 8001896:	f022 0201 	bic.w	r2, r2, #1
 800189a:	671a      	str	r2, [r3, #112]	; 0x70
 800189c:	6f1a      	ldr	r2, [r3, #112]	; 0x70
 800189e:	f022 0204 	bic.w	r2, r2, #4
 80018a2:	671a      	str	r2, [r3, #112]	; 0x70
 80018a4:	6f1a      	ldr	r2, [r3, #112]	; 0x70
 80018a6:	f022 0280 	bic.w	r2, r2, #128	; 0x80
 80018aa:	671a      	str	r2, [r3, #112]	; 0x70
 80018ac:	f7ff f9f0 	bl	8000c90 <HAL_GetTick>
 80018b0:	4ea0      	ldr	r6, [pc, #640]	; (8001b34 <HAL_RCC_OscConfig+0x540>)
 80018b2:	f241 3788 	movw	r7, #5000	; 0x1388
 80018b6:	4605      	mov	r5, r0
 80018b8:	e004      	b.n	80018c4 <HAL_RCC_OscConfig+0x2d0>
 80018ba:	f7ff f9e9 	bl	8000c90 <HAL_GetTick>
 80018be:	1b40      	subs	r0, r0, r5
 80018c0:	42b8      	cmp	r0, r7
 80018c2:	d803      	bhi.n	80018cc <HAL_RCC_OscConfig+0x2d8>
 80018c4:	6f33      	ldr	r3, [r6, #112]	; 0x70
 80018c6:	079b      	lsls	r3, r3, #30
 80018c8:	d5f7      	bpl.n	80018ba <HAL_RCC_OscConfig+0x2c6>
 80018ca:	e739      	b.n	8001740 <HAL_RCC_OscConfig+0x14c>
 80018cc:	2003      	movs	r0, #3
 80018ce:	bdf8      	pop	{r3, r4, r5, r6, r7, pc}
 80018d0:	4d98      	ldr	r5, [pc, #608]	; (8001b34 <HAL_RCC_OscConfig+0x540>)
 80018d2:	682b      	ldr	r3, [r5, #0]
 80018d4:	f423 3380 	bic.w	r3, r3, #65536	; 0x10000
 80018d8:	602b      	str	r3, [r5, #0]
 80018da:	682b      	ldr	r3, [r5, #0]
 80018dc:	f423 1380 	bic.w	r3, r3, #1048576	; 0x100000
 80018e0:	602b      	str	r3, [r5, #0]
 80018e2:	682b      	ldr	r3, [r5, #0]
 80018e4:	f423 2380 	bic.w	r3, r3, #262144	; 0x40000
 80018e8:	602b      	str	r3, [r5, #0]
 80018ea:	f7ff f9d1 	bl	8000c90 <HAL_GetTick>
 80018ee:	4606      	mov	r6, r0
 80018f0:	e004      	b.n	80018fc <HAL_RCC_OscConfig+0x308>
 80018f2:	f7ff f9cd 	bl	8000c90 <HAL_GetTick>
 80018f6:	1b80      	subs	r0, r0, r6
 80018f8:	2864      	cmp	r0, #100	; 0x64
 80018fa:	d8e7      	bhi.n	80018cc <HAL_RCC_OscConfig+0x2d8>
 80018fc:	682b      	ldr	r3, [r5, #0]
 80018fe:	039f      	lsls	r7, r3, #14
 8001900:	d4f7      	bmi.n	80018f2 <HAL_RCC_OscConfig+0x2fe>
 8001902:	e6ba      	b.n	800167a <HAL_RCC_OscConfig+0x86>
 8001904:	6f6b      	ldr	r3, [r5, #116]	; 0x74
 8001906:	f023 0301 	bic.w	r3, r3, #1
 800190a:	676b      	str	r3, [r5, #116]	; 0x74
 800190c:	f7ff f9c0 	bl	8000c90 <HAL_GetTick>
 8001910:	4606      	mov	r6, r0
 8001912:	e004      	b.n	800191e <HAL_RCC_OscConfig+0x32a>
 8001914:	f7ff f9bc 	bl	8000c90 <HAL_GetTick>
 8001918:	1b80      	subs	r0, r0, r6
 800191a:	2802      	cmp	r0, #2
 800191c:	d8d6      	bhi.n	80018cc <HAL_RCC_OscConfig+0x2d8>
 800191e:	6f6b      	ldr	r3, [r5, #116]	; 0x74
 8001920:	0799      	lsls	r1, r3, #30
 8001922:	d4f7      	bmi.n	8001914 <HAL_RCC_OscConfig+0x320>
 8001924:	e6ef      	b.n	8001706 <HAL_RCC_OscConfig+0x112>
 8001926:	682b      	ldr	r3, [r5, #0]
 8001928:	f423 5380 	bic.w	r3, r3, #4096	; 0x1000
 800192c:	602b      	str	r3, [r5, #0]
 800192e:	f7ff f9af 	bl	8000c90 <HAL_GetTick>
 8001932:	4606      	mov	r6, r0
 8001934:	e004      	b.n	8001940 <HAL_RCC_OscConfig+0x34c>
 8001936:	f7ff f9ab 	bl	8000c90 <HAL_GetTick>
 800193a:	1b80      	subs	r0, r0, r6
 800193c:	2802      	cmp	r0, #2
 800193e:	d8c5      	bhi.n	80018cc <HAL_RCC_OscConfig+0x2d8>
 8001940:	682b      	ldr	r3, [r5, #0]
 8001942:	0498      	lsls	r0, r3, #18
 8001944:	d4f7      	bmi.n	8001936 <HAL_RCC_OscConfig+0x342>
 8001946:	e6f7      	b.n	8001738 <HAL_RCC_OscConfig+0x144>
 8001948:	682b      	ldr	r3, [r5, #0]
 800194a:	f023 0380 	bic.w	r3, r3, #128	; 0x80
 800194e:	602b      	str	r3, [r5, #0]
 8001950:	f7ff f99e 	bl	8000c90 <HAL_GetTick>
 8001954:	4606      	mov	r6, r0
 8001956:	e004      	b.n	8001962 <HAL_RCC_OscConfig+0x36e>
 8001958:	f7ff f99a 	bl	8000c90 <HAL_GetTick>
 800195c:	1b80      	subs	r0, r0, r6
 800195e:	2802      	cmp	r0, #2
 8001960:	d8b4      	bhi.n	80018cc <HAL_RCC_OscConfig+0x2d8>
 8001962:	682b      	ldr	r3, [r5, #0]
 8001964:	05df      	lsls	r7, r3, #23
 8001966:	d4f7      	bmi.n	8001958 <HAL_RCC_OscConfig+0x364>
 8001968:	6823      	ldr	r3, [r4, #0]
 800196a:	e6b4      	b.n	80016d6 <HAL_RCC_OscConfig+0xe2>
 800196c:	f023 0301 	bic.w	r3, r3, #1
 8001970:	602b      	str	r3, [r5, #0]
 8001972:	f7ff f98d 	bl	8000c90 <HAL_GetTick>
 8001976:	4606      	mov	r6, r0
 8001978:	e004      	b.n	8001984 <HAL_RCC_OscConfig+0x390>
 800197a:	f7ff f989 	bl	8000c90 <HAL_GetTick>
 800197e:	1b80      	subs	r0, r0, r6
 8001980:	2802      	cmp	r0, #2
 8001982:	d8a3      	bhi.n	80018cc <HAL_RCC_OscConfig+0x2d8>
 8001984:	682b      	ldr	r3, [r5, #0]
 8001986:	0758      	lsls	r0, r3, #29
 8001988:	d4f7      	bmi.n	800197a <HAL_RCC_OscConfig+0x386>
 800198a:	6823      	ldr	r3, [r4, #0]
 800198c:	e678      	b.n	8001680 <HAL_RCC_OscConfig+0x8c>
 800198e:	0790      	lsls	r0, r2, #30
 8001990:	f47f af21 	bne.w	80017d6 <HAL_RCC_OscConfig+0x1e2>
 8001994:	e6f9      	b.n	800178a <HAL_RCC_OscConfig+0x196>
 8001996:	2001      	movs	r0, #1
 8001998:	4770      	bx	lr
 800199a:	f7ff f979 	bl	8000c90 <HAL_GetTick>
 800199e:	4606      	mov	r6, r0
 80019a0:	e004      	b.n	80019ac <HAL_RCC_OscConfig+0x3b8>
 80019a2:	f7ff f975 	bl	8000c90 <HAL_GetTick>
 80019a6:	1b80      	subs	r0, r0, r6
 80019a8:	2802      	cmp	r0, #2
 80019aa:	d88f      	bhi.n	80018cc <HAL_RCC_OscConfig+0x2d8>
 80019ac:	682b      	ldr	r3, [r5, #0]
 80019ae:	0199      	lsls	r1, r3, #6
 80019b0:	d4f7      	bmi.n	80019a2 <HAL_RCC_OscConfig+0x3ae>
 80019b2:	6aa9      	ldr	r1, [r5, #40]	; 0x28
 80019b4:	4b60      	ldr	r3, [pc, #384]	; (8001b38 <HAL_RCC_OscConfig+0x544>)
 80019b6:	6aa2      	ldr	r2, [r4, #40]	; 0x28
 80019b8:	400b      	ands	r3, r1
 80019ba:	4960      	ldr	r1, [pc, #384]	; (8001b3c <HAL_RCC_OscConfig+0x548>)
 80019bc:	4e5d      	ldr	r6, [pc, #372]	; (8001b34 <HAL_RCC_OscConfig+0x540>)
 80019be:	4313      	orrs	r3, r2
 80019c0:	6ae2      	ldr	r2, [r4, #44]	; 0x2c
 80019c2:	ea43 1302 	orr.w	r3, r3, r2, lsl #4
 80019c6:	62ab      	str	r3, [r5, #40]	; 0x28
 80019c8:	e9d4 320d 	ldrd	r3, r2, [r4, #52]	; 0x34
 80019cc:	3b01      	subs	r3, #1
 80019ce:	3a01      	subs	r2, #1
 80019d0:	025b      	lsls	r3, r3, #9
 80019d2:	0412      	lsls	r2, r2, #16
 80019d4:	b29b      	uxth	r3, r3
 80019d6:	f402 02fe 	and.w	r2, r2, #8323072	; 0x7f0000
 80019da:	4313      	orrs	r3, r2
 80019dc:	6b22      	ldr	r2, [r4, #48]	; 0x30
 80019de:	3a01      	subs	r2, #1
 80019e0:	f3c2 0208 	ubfx	r2, r2, #0, #9
 80019e4:	4313      	orrs	r3, r2
 80019e6:	6be2      	ldr	r2, [r4, #60]	; 0x3c
 80019e8:	3a01      	subs	r2, #1
 80019ea:	0612      	lsls	r2, r2, #24
 80019ec:	f002 42fe 	and.w	r2, r2, #2130706432	; 0x7f000000
 80019f0:	4313      	orrs	r3, r2
 80019f2:	632b      	str	r3, [r5, #48]	; 0x30
 80019f4:	6aeb      	ldr	r3, [r5, #44]	; 0x2c
 80019f6:	f023 0301 	bic.w	r3, r3, #1
 80019fa:	62eb      	str	r3, [r5, #44]	; 0x2c
 80019fc:	6b6a      	ldr	r2, [r5, #52]	; 0x34
 80019fe:	6ca3      	ldr	r3, [r4, #72]	; 0x48
 8001a00:	4011      	ands	r1, r2
 8001a02:	ea41 01c3 	orr.w	r1, r1, r3, lsl #3
 8001a06:	6369      	str	r1, [r5, #52]	; 0x34
 8001a08:	6aeb      	ldr	r3, [r5, #44]	; 0x2c
 8001a0a:	6c22      	ldr	r2, [r4, #64]	; 0x40
 8001a0c:	f023 030c 	bic.w	r3, r3, #12
 8001a10:	4313      	orrs	r3, r2
 8001a12:	62eb      	str	r3, [r5, #44]	; 0x2c
 8001a14:	6aeb      	ldr	r3, [r5, #44]	; 0x2c
 8001a16:	6c62      	ldr	r2, [r4, #68]	; 0x44
 8001a18:	f023 0302 	bic.w	r3, r3, #2
 8001a1c:	4313      	orrs	r3, r2
 8001a1e:	62eb      	str	r3, [r5, #44]	; 0x2c
 8001a20:	6aeb      	ldr	r3, [r5, #44]	; 0x2c
 8001a22:	f443 3380 	orr.w	r3, r3, #65536	; 0x10000
 8001a26:	62eb      	str	r3, [r5, #44]	; 0x2c
 8001a28:	6aeb      	ldr	r3, [r5, #44]	; 0x2c
 8001a2a:	f443 3300 	orr.w	r3, r3, #131072	; 0x20000
 8001a2e:	62eb      	str	r3, [r5, #44]	; 0x2c
 8001a30:	6aeb      	ldr	r3, [r5, #44]	; 0x2c
 8001a32:	f443 2380 	orr.w	r3, r3, #262144	; 0x40000
 8001a36:	62eb      	str	r3, [r5, #44]	; 0x2c
 8001a38:	6aeb      	ldr	r3, [r5, #44]	; 0x2c
 8001a3a:	f043 0301 	orr.w	r3, r3, #1
 8001a3e:	62eb      	str	r3, [r5, #44]	; 0x2c
 8001a40:	682b      	ldr	r3, [r5, #0]
 8001a42:	f043 7380 	orr.w	r3, r3, #16777216	; 0x1000000
 8001a46:	602b      	str	r3, [r5, #0]
 8001a48:	f7ff f922 	bl	8000c90 <HAL_GetTick>
 8001a4c:	4604      	mov	r4, r0
 8001a4e:	e005      	b.n	8001a5c <HAL_RCC_OscConfig+0x468>
 8001a50:	f7ff f91e 	bl	8000c90 <HAL_GetTick>
 8001a54:	1b00      	subs	r0, r0, r4
 8001a56:	2802      	cmp	r0, #2
 8001a58:	f63f af38 	bhi.w	80018cc <HAL_RCC_OscConfig+0x2d8>
 8001a5c:	6833      	ldr	r3, [r6, #0]
 8001a5e:	019a      	lsls	r2, r3, #6
 8001a60:	d5f6      	bpl.n	8001a50 <HAL_RCC_OscConfig+0x45c>
 8001a62:	e68a      	b.n	800177a <HAL_RCC_OscConfig+0x186>
 8001a64:	f442 2280 	orr.w	r2, r2, #262144	; 0x40000
 8001a68:	601a      	str	r2, [r3, #0]
 8001a6a:	681a      	ldr	r2, [r3, #0]
 8001a6c:	f442 1280 	orr.w	r2, r2, #1048576	; 0x100000
 8001a70:	601a      	str	r2, [r3, #0]
 8001a72:	681a      	ldr	r2, [r3, #0]
 8001a74:	f442 3280 	orr.w	r2, r2, #65536	; 0x10000
 8001a78:	601a      	str	r2, [r3, #0]
 8001a7a:	e5f0      	b.n	800165e <HAL_RCC_OscConfig+0x6a>
 8001a7c:	2801      	cmp	r0, #1
 8001a7e:	6aaa      	ldr	r2, [r5, #40]	; 0x28
 8001a80:	6b2e      	ldr	r6, [r5, #48]	; 0x30
 8001a82:	f43f ae7b 	beq.w	800177c <HAL_RCC_OscConfig+0x188>
 8001a86:	f002 0303 	and.w	r3, r2, #3
 8001a8a:	6aa1      	ldr	r1, [r4, #40]	; 0x28
 8001a8c:	428b      	cmp	r3, r1
 8001a8e:	f47f aec7 	bne.w	8001820 <HAL_RCC_OscConfig+0x22c>
 8001a92:	f3c2 1205 	ubfx	r2, r2, #4, #6
 8001a96:	6ae3      	ldr	r3, [r4, #44]	; 0x2c
 8001a98:	429a      	cmp	r2, r3
 8001a9a:	f47f aec1 	bne.w	8001820 <HAL_RCC_OscConfig+0x22c>
 8001a9e:	6b23      	ldr	r3, [r4, #48]	; 0x30
 8001aa0:	f3c6 0208 	ubfx	r2, r6, #0, #9
 8001aa4:	3b01      	subs	r3, #1
 8001aa6:	429a      	cmp	r2, r3
 8001aa8:	f47f aeba 	bne.w	8001820 <HAL_RCC_OscConfig+0x22c>
 8001aac:	6b63      	ldr	r3, [r4, #52]	; 0x34
 8001aae:	f3c6 2246 	ubfx	r2, r6, #9, #7
 8001ab2:	3b01      	subs	r3, #1
 8001ab4:	429a      	cmp	r2, r3
 8001ab6:	f47f aeb3 	bne.w	8001820 <HAL_RCC_OscConfig+0x22c>
 8001aba:	6ba3      	ldr	r3, [r4, #56]	; 0x38
 8001abc:	f3c6 4206 	ubfx	r2, r6, #16, #7
 8001ac0:	3b01      	subs	r3, #1
 8001ac2:	429a      	cmp	r2, r3
 8001ac4:	f47f aeac 	bne.w	8001820 <HAL_RCC_OscConfig+0x22c>
 8001ac8:	6be3      	ldr	r3, [r4, #60]	; 0x3c
 8001aca:	f3c6 6606 	ubfx	r6, r6, #24, #7
 8001ace:	3b01      	subs	r3, #1
 8001ad0:	429e      	cmp	r6, r3
 8001ad2:	f47f aea5 	bne.w	8001820 <HAL_RCC_OscConfig+0x22c>
 8001ad6:	6b6b      	ldr	r3, [r5, #52]	; 0x34
 8001ad8:	6ca2      	ldr	r2, [r4, #72]	; 0x48
 8001ada:	f3c3 03cc 	ubfx	r3, r3, #3, #13
 8001ade:	429a      	cmp	r2, r3
 8001ae0:	f43f ae4b 	beq.w	800177a <HAL_RCC_OscConfig+0x186>
 8001ae4:	4a13      	ldr	r2, [pc, #76]	; (8001b34 <HAL_RCC_OscConfig+0x540>)
 8001ae6:	6ad3      	ldr	r3, [r2, #44]	; 0x2c
 8001ae8:	f023 0301 	bic.w	r3, r3, #1
 8001aec:	62d3      	str	r3, [r2, #44]	; 0x2c
 8001aee:	f7ff f8cf 	bl	8000c90 <HAL_GetTick>
 8001af2:	4605      	mov	r5, r0
 8001af4:	f7ff f8cc 	bl	8000c90 <HAL_GetTick>
 8001af8:	42a8      	cmp	r0, r5
 8001afa:	d0fb      	beq.n	8001af4 <HAL_RCC_OscConfig+0x500>
 8001afc:	4a0d      	ldr	r2, [pc, #52]	; (8001b34 <HAL_RCC_OscConfig+0x540>)
 8001afe:	2000      	movs	r0, #0
 8001b00:	6ca1      	ldr	r1, [r4, #72]	; 0x48
 8001b02:	4b0e      	ldr	r3, [pc, #56]	; (8001b3c <HAL_RCC_OscConfig+0x548>)
 8001b04:	6b54      	ldr	r4, [r2, #52]	; 0x34
 8001b06:	4023      	ands	r3, r4
 8001b08:	ea43 03c1 	orr.w	r3, r3, r1, lsl #3
 8001b0c:	6353      	str	r3, [r2, #52]	; 0x34
 8001b0e:	6ad3      	ldr	r3, [r2, #44]	; 0x2c
 8001b10:	f043 0301 	orr.w	r3, r3, #1
 8001b14:	62d3      	str	r3, [r2, #44]	; 0x2c
 8001b16:	bdf8      	pop	{r3, r4, r5, r6, r7, pc}
 8001b18:	4b06      	ldr	r3, [pc, #24]	; (8001b34 <HAL_RCC_OscConfig+0x540>)
 8001b1a:	681a      	ldr	r2, [r3, #0]
 8001b1c:	f442 2280 	orr.w	r2, r2, #262144	; 0x40000
 8001b20:	601a      	str	r2, [r3, #0]
 8001b22:	681a      	ldr	r2, [r3, #0]
 8001b24:	f422 1280 	bic.w	r2, r2, #1048576	; 0x100000
 8001b28:	601a      	str	r2, [r3, #0]
 8001b2a:	681a      	ldr	r2, [r3, #0]
 8001b2c:	f442 3280 	orr.w	r2, r2, #65536	; 0x10000
 8001b30:	601a      	str	r2, [r3, #0]
 8001b32:	e594      	b.n	800165e <HAL_RCC_OscConfig+0x6a>
 8001b34:	58024400 	.word	0x58024400
 8001b38:	fffffc0c 	.word	0xfffffc0c
 8001b3c:	ffff0007 	.word	0xffff0007
 8001b40:	4d1e      	ldr	r5, [pc, #120]	; (8001bbc <HAL_RCC_OscConfig+0x5c8>)
 8001b42:	f241 3788 	movw	r7, #5000	; 0x1388
 8001b46:	6f2b      	ldr	r3, [r5, #112]	; 0x70
 8001b48:	f023 0301 	bic.w	r3, r3, #1
 8001b4c:	672b      	str	r3, [r5, #112]	; 0x70
 8001b4e:	6f2b      	ldr	r3, [r5, #112]	; 0x70
 8001b50:	f023 0380 	bic.w	r3, r3, #128	; 0x80
 8001b54:	672b      	str	r3, [r5, #112]	; 0x70
 8001b56:	6f2b      	ldr	r3, [r5, #112]	; 0x70
 8001b58:	f023 0304 	bic.w	r3, r3, #4
 8001b5c:	672b      	str	r3, [r5, #112]	; 0x70
 8001b5e:	f7ff f897 	bl	8000c90 <HAL_GetTick>
 8001b62:	4606      	mov	r6, r0
 8001b64:	e005      	b.n	8001b72 <HAL_RCC_OscConfig+0x57e>
 8001b66:	f7ff f893 	bl	8000c90 <HAL_GetTick>
 8001b6a:	1b80      	subs	r0, r0, r6
 8001b6c:	42b8      	cmp	r0, r7
 8001b6e:	f63f aead 	bhi.w	80018cc <HAL_RCC_OscConfig+0x2d8>
 8001b72:	6f2b      	ldr	r3, [r5, #112]	; 0x70
 8001b74:	0798      	lsls	r0, r3, #30
 8001b76:	d4f6      	bmi.n	8001b66 <HAL_RCC_OscConfig+0x572>
 8001b78:	e5e2      	b.n	8001740 <HAL_RCC_OscConfig+0x14c>
 8001b7a:	4a10      	ldr	r2, [pc, #64]	; (8001bbc <HAL_RCC_OscConfig+0x5c8>)
 8001b7c:	6f13      	ldr	r3, [r2, #112]	; 0x70
 8001b7e:	f043 0301 	orr.w	r3, r3, #1
 8001b82:	6713      	str	r3, [r2, #112]	; 0x70
 8001b84:	e692      	b.n	80018ac <HAL_RCC_OscConfig+0x2b8>
 8001b86:	4b0d      	ldr	r3, [pc, #52]	; (8001bbc <HAL_RCC_OscConfig+0x5c8>)
 8001b88:	6f1a      	ldr	r2, [r3, #112]	; 0x70
 8001b8a:	f042 0204 	orr.w	r2, r2, #4
 8001b8e:	671a      	str	r2, [r3, #112]	; 0x70
 8001b90:	6f1a      	ldr	r2, [r3, #112]	; 0x70
 8001b92:	f022 0280 	bic.w	r2, r2, #128	; 0x80
 8001b96:	671a      	str	r2, [r3, #112]	; 0x70
 8001b98:	6f1a      	ldr	r2, [r3, #112]	; 0x70
 8001b9a:	f042 0201 	orr.w	r2, r2, #1
 8001b9e:	671a      	str	r2, [r3, #112]	; 0x70
 8001ba0:	e684      	b.n	80018ac <HAL_RCC_OscConfig+0x2b8>
 8001ba2:	f042 0204 	orr.w	r2, r2, #4
 8001ba6:	671a      	str	r2, [r3, #112]	; 0x70
 8001ba8:	6f1a      	ldr	r2, [r3, #112]	; 0x70
 8001baa:	f042 0280 	orr.w	r2, r2, #128	; 0x80
 8001bae:	671a      	str	r2, [r3, #112]	; 0x70
 8001bb0:	6f1a      	ldr	r2, [r3, #112]	; 0x70
 8001bb2:	f042 0201 	orr.w	r2, r2, #1
 8001bb6:	671a      	str	r2, [r3, #112]	; 0x70
 8001bb8:	e678      	b.n	80018ac <HAL_RCC_OscConfig+0x2b8>
 8001bba:	bf00      	nop
 8001bbc:	58024400 	.word	0x58024400

08001bc0 <HAL_RCC_GetSysClockFreq>:
 8001bc0:	4a47      	ldr	r2, [pc, #284]	; (8001ce0 <HAL_RCC_GetSysClockFreq+0x120>)
 8001bc2:	6913      	ldr	r3, [r2, #16]
 8001bc4:	f003 0338 	and.w	r3, r3, #56	; 0x38
 8001bc8:	2b10      	cmp	r3, #16
 8001bca:	d004      	beq.n	8001bd6 <HAL_RCC_GetSysClockFreq+0x16>
 8001bcc:	2b18      	cmp	r3, #24
 8001bce:	d00d      	beq.n	8001bec <HAL_RCC_GetSysClockFreq+0x2c>
 8001bd0:	b11b      	cbz	r3, 8001bda <HAL_RCC_GetSysClockFreq+0x1a>
 8001bd2:	4844      	ldr	r0, [pc, #272]	; (8001ce4 <HAL_RCC_GetSysClockFreq+0x124>)
 8001bd4:	4770      	bx	lr
 8001bd6:	4844      	ldr	r0, [pc, #272]	; (8001ce8 <HAL_RCC_GetSysClockFreq+0x128>)
 8001bd8:	4770      	bx	lr
 8001bda:	6813      	ldr	r3, [r2, #0]
 8001bdc:	0699      	lsls	r1, r3, #26
 8001bde:	d54a      	bpl.n	8001c76 <HAL_RCC_GetSysClockFreq+0xb6>
 8001be0:	6813      	ldr	r3, [r2, #0]
 8001be2:	4842      	ldr	r0, [pc, #264]	; (8001cec <HAL_RCC_GetSysClockFreq+0x12c>)
 8001be4:	f3c3 03c1 	ubfx	r3, r3, #3, #2
 8001be8:	40d8      	lsrs	r0, r3
 8001bea:	4770      	bx	lr
 8001bec:	6a93      	ldr	r3, [r2, #40]	; 0x28
 8001bee:	b430      	push	{r4, r5}
 8001bf0:	6a94      	ldr	r4, [r2, #40]	; 0x28
 8001bf2:	6ad5      	ldr	r5, [r2, #44]	; 0x2c
 8001bf4:	f414 7f7c 	tst.w	r4, #1008	; 0x3f0
 8001bf8:	6b51      	ldr	r1, [r2, #52]	; 0x34
 8001bfa:	f3c4 1005 	ubfx	r0, r4, #4, #6
 8001bfe:	d038      	beq.n	8001c72 <HAL_RCC_GetSysClockFreq+0xb2>
 8001c00:	f3c1 01cc 	ubfx	r1, r1, #3, #13
 8001c04:	f005 0501 	and.w	r5, r5, #1
 8001c08:	f003 0303 	and.w	r3, r3, #3
 8001c0c:	fb05 f101 	mul.w	r1, r5, r1
 8001c10:	2b01      	cmp	r3, #1
 8001c12:	ee07 1a90 	vmov	s15, r1
 8001c16:	eeb8 7ae7 	vcvt.f32.s32	s14, s15
 8001c1a:	d002      	beq.n	8001c22 <HAL_RCC_GetSysClockFreq+0x62>
 8001c1c:	2b02      	cmp	r3, #2
 8001c1e:	d02c      	beq.n	8001c7a <HAL_RCC_GetSysClockFreq+0xba>
 8001c20:	b393      	cbz	r3, 8001c88 <HAL_RCC_GetSysClockFreq+0xc8>
 8001c22:	ee07 0a90 	vmov	s15, r0
 8001c26:	ed9f 5a32 	vldr	s10, [pc, #200]	; 8001cf0 <HAL_RCC_GetSysClockFreq+0x130>
 8001c2a:	eef8 7ae7 	vcvt.f32.s32	s15, s15
 8001c2e:	6b13      	ldr	r3, [r2, #48]	; 0x30
 8001c30:	eec5 6a27 	vdiv.f32	s13, s10, s15
 8001c34:	eddf 5a2f 	vldr	s11, [pc, #188]	; 8001cf4 <HAL_RCC_GetSysClockFreq+0x134>
 8001c38:	f3c3 0308 	ubfx	r3, r3, #0, #9
 8001c3c:	ee07 3a90 	vmov	s15, r3
 8001c40:	eeb7 6a00 	vmov.f32	s12, #112	; 0x3f800000  1.0
 8001c44:	eef8 7ae7 	vcvt.f32.s32	s15, s15
 8001c48:	eee7 7a25 	vfma.f32	s15, s14, s11
 8001c4c:	ee77 7a86 	vadd.f32	s15, s15, s12
 8001c50:	ee66 6aa7 	vmul.f32	s13, s13, s15
 8001c54:	4b22      	ldr	r3, [pc, #136]	; (8001ce0 <HAL_RCC_GetSysClockFreq+0x120>)
 8001c56:	6b1b      	ldr	r3, [r3, #48]	; 0x30
 8001c58:	f3c3 2346 	ubfx	r3, r3, #9, #7
 8001c5c:	3301      	adds	r3, #1
 8001c5e:	ee07 3a90 	vmov	s15, r3
 8001c62:	eeb8 7ae7 	vcvt.f32.s32	s14, s15
 8001c66:	eec6 7a87 	vdiv.f32	s15, s13, s14
 8001c6a:	eefc 7ae7 	vcvt.u32.f32	s15, s15
 8001c6e:	ee17 0a90 	vmov	r0, s15
 8001c72:	bc30      	pop	{r4, r5}
 8001c74:	4770      	bx	lr
 8001c76:	481d      	ldr	r0, [pc, #116]	; (8001cec <HAL_RCC_GetSysClockFreq+0x12c>)
 8001c78:	4770      	bx	lr
 8001c7a:	ee07 0a90 	vmov	s15, r0
 8001c7e:	ed9f 5a1e 	vldr	s10, [pc, #120]	; 8001cf8 <HAL_RCC_GetSysClockFreq+0x138>
 8001c82:	eef8 7ae7 	vcvt.f32.s32	s15, s15
 8001c86:	e7d2      	b.n	8001c2e <HAL_RCC_GetSysClockFreq+0x6e>
 8001c88:	6813      	ldr	r3, [r2, #0]
 8001c8a:	069b      	lsls	r3, r3, #26
 8001c8c:	d520      	bpl.n	8001cd0 <HAL_RCC_GetSysClockFreq+0x110>
 8001c8e:	6814      	ldr	r4, [r2, #0]
 8001c90:	ee07 0a90 	vmov	s15, r0
 8001c94:	4915      	ldr	r1, [pc, #84]	; (8001cec <HAL_RCC_GetSysClockFreq+0x12c>)
 8001c96:	eef7 5a00 	vmov.f32	s11, #112	; 0x3f800000  1.0
 8001c9a:	6b13      	ldr	r3, [r2, #48]	; 0x30
 8001c9c:	f3c4 04c1 	ubfx	r4, r4, #3, #2
 8001ca0:	eef8 7ae7 	vcvt.f32.s32	s15, s15
 8001ca4:	ed9f 5a13 	vldr	s10, [pc, #76]	; 8001cf4 <HAL_RCC_GetSysClockFreq+0x134>
 8001ca8:	f3c3 0308 	ubfx	r3, r3, #0, #9
 8001cac:	40e1      	lsrs	r1, r4
 8001cae:	ee06 3a90 	vmov	s13, r3
 8001cb2:	ee06 1a10 	vmov	s12, r1
 8001cb6:	eef8 6ae6 	vcvt.f32.s32	s13, s13
 8001cba:	eeb8 6ac6 	vcvt.f32.s32	s12, s12
 8001cbe:	eee7 6a05 	vfma.f32	s13, s14, s10
 8001cc2:	ee86 7a27 	vdiv.f32	s14, s12, s15
 8001cc6:	ee76 6aa5 	vadd.f32	s13, s13, s11
 8001cca:	ee66 6a87 	vmul.f32	s13, s13, s14
 8001cce:	e7c1      	b.n	8001c54 <HAL_RCC_GetSysClockFreq+0x94>
 8001cd0:	ee07 0a90 	vmov	s15, r0
 8001cd4:	ed9f 5a09 	vldr	s10, [pc, #36]	; 8001cfc <HAL_RCC_GetSysClockFreq+0x13c>
 8001cd8:	eef8 7ae7 	vcvt.f32.s32	s15, s15
 8001cdc:	e7a7      	b.n	8001c2e <HAL_RCC_GetSysClockFreq+0x6e>
 8001cde:	bf00      	nop
 8001ce0:	58024400 	.word	0x58024400
 8001ce4:	003d0900 	.word	0x003d0900
 8001ce8:	007a1200 	.word	0x007a1200
 8001cec:	03d09000 	.word	0x03d09000
 8001cf0:	4a742400 	.word	0x4a742400
 8001cf4:	39000000 	.word	0x39000000
 8001cf8:	4af42400 	.word	0x4af42400
 8001cfc:	4c742400 	.word	0x4c742400

08001d00 <HAL_RCC_ClockConfig>:
 8001d00:	2800      	cmp	r0, #0
 8001d02:	f000 810c 	beq.w	8001f1e <HAL_RCC_ClockConfig+0x21e>
 8001d06:	4a8c      	ldr	r2, [pc, #560]	; (8001f38 <HAL_RCC_ClockConfig+0x238>)
 8001d08:	6813      	ldr	r3, [r2, #0]
 8001d0a:	f003 030f 	and.w	r3, r3, #15
 8001d0e:	428b      	cmp	r3, r1
 8001d10:	e92d 41f0 	stmdb	sp!, {r4, r5, r6, r7, r8, lr}
 8001d14:	4604      	mov	r4, r0
 8001d16:	460d      	mov	r5, r1
 8001d18:	d20c      	bcs.n	8001d34 <HAL_RCC_ClockConfig+0x34>
 8001d1a:	6813      	ldr	r3, [r2, #0]
 8001d1c:	f023 030f 	bic.w	r3, r3, #15
 8001d20:	430b      	orrs	r3, r1
 8001d22:	6013      	str	r3, [r2, #0]
 8001d24:	6813      	ldr	r3, [r2, #0]
 8001d26:	f003 030f 	and.w	r3, r3, #15
 8001d2a:	428b      	cmp	r3, r1
 8001d2c:	d002      	beq.n	8001d34 <HAL_RCC_ClockConfig+0x34>
 8001d2e:	2001      	movs	r0, #1
 8001d30:	e8bd 81f0 	ldmia.w	sp!, {r4, r5, r6, r7, r8, pc}
 8001d34:	6823      	ldr	r3, [r4, #0]
 8001d36:	075f      	lsls	r7, r3, #29
 8001d38:	d50b      	bpl.n	8001d52 <HAL_RCC_ClockConfig+0x52>
 8001d3a:	4980      	ldr	r1, [pc, #512]	; (8001f3c <HAL_RCC_ClockConfig+0x23c>)
 8001d3c:	6920      	ldr	r0, [r4, #16]
 8001d3e:	698a      	ldr	r2, [r1, #24]
 8001d40:	f002 0270 	and.w	r2, r2, #112	; 0x70
 8001d44:	4290      	cmp	r0, r2
 8001d46:	d904      	bls.n	8001d52 <HAL_RCC_ClockConfig+0x52>
 8001d48:	698a      	ldr	r2, [r1, #24]
 8001d4a:	f022 0270 	bic.w	r2, r2, #112	; 0x70
 8001d4e:	4302      	orrs	r2, r0
 8001d50:	618a      	str	r2, [r1, #24]
 8001d52:	071e      	lsls	r6, r3, #28
 8001d54:	d50b      	bpl.n	8001d6e <HAL_RCC_ClockConfig+0x6e>
 8001d56:	4979      	ldr	r1, [pc, #484]	; (8001f3c <HAL_RCC_ClockConfig+0x23c>)
 8001d58:	6960      	ldr	r0, [r4, #20]
 8001d5a:	69ca      	ldr	r2, [r1, #28]
 8001d5c:	f002 0270 	and.w	r2, r2, #112	; 0x70
 8001d60:	4290      	cmp	r0, r2
 8001d62:	d904      	bls.n	8001d6e <HAL_RCC_ClockConfig+0x6e>
 8001d64:	69ca      	ldr	r2, [r1, #28]
 8001d66:	f022 0270 	bic.w	r2, r2, #112	; 0x70
 8001d6a:	4302      	orrs	r2, r0
 8001d6c:	61ca      	str	r2, [r1, #28]
 8001d6e:	06d8      	lsls	r0, r3, #27
 8001d70:	d50b      	bpl.n	8001d8a <HAL_RCC_ClockConfig+0x8a>
 8001d72:	4972      	ldr	r1, [pc, #456]	; (8001f3c <HAL_RCC_ClockConfig+0x23c>)
 8001d74:	69a0      	ldr	r0, [r4, #24]
 8001d76:	69ca      	ldr	r2, [r1, #28]
 8001d78:	f402 62e0 	and.w	r2, r2, #1792	; 0x700
 8001d7c:	4290      	cmp	r0, r2
 8001d7e:	d904      	bls.n	8001d8a <HAL_RCC_ClockConfig+0x8a>
 8001d80:	69ca      	ldr	r2, [r1, #28]
 8001d82:	f422 62e0 	bic.w	r2, r2, #1792	; 0x700
 8001d86:	4302      	orrs	r2, r0
 8001d88:	61ca      	str	r2, [r1, #28]
 8001d8a:	0699      	lsls	r1, r3, #26
 8001d8c:	d50b      	bpl.n	8001da6 <HAL_RCC_ClockConfig+0xa6>
 8001d8e:	496b      	ldr	r1, [pc, #428]	; (8001f3c <HAL_RCC_ClockConfig+0x23c>)
 8001d90:	69e0      	ldr	r0, [r4, #28]
 8001d92:	6a0a      	ldr	r2, [r1, #32]
 8001d94:	f002 0270 	and.w	r2, r2, #112	; 0x70
 8001d98:	4290      	cmp	r0, r2
 8001d9a:	d904      	bls.n	8001da6 <HAL_RCC_ClockConfig+0xa6>
 8001d9c:	6a0a      	ldr	r2, [r1, #32]
 8001d9e:	f022 0270 	bic.w	r2, r2, #112	; 0x70
 8001da2:	4302      	orrs	r2, r0
 8001da4:	620a      	str	r2, [r1, #32]
 8001da6:	079a      	lsls	r2, r3, #30
 8001da8:	f140 80ab 	bpl.w	8001f02 <HAL_RCC_ClockConfig+0x202>
 8001dac:	4863      	ldr	r0, [pc, #396]	; (8001f3c <HAL_RCC_ClockConfig+0x23c>)
 8001dae:	68e1      	ldr	r1, [r4, #12]
 8001db0:	6982      	ldr	r2, [r0, #24]
 8001db2:	f002 020f 	and.w	r2, r2, #15
 8001db6:	4291      	cmp	r1, r2
 8001db8:	d904      	bls.n	8001dc4 <HAL_RCC_ClockConfig+0xc4>
 8001dba:	6982      	ldr	r2, [r0, #24]
 8001dbc:	f022 020f 	bic.w	r2, r2, #15
 8001dc0:	430a      	orrs	r2, r1
 8001dc2:	6182      	str	r2, [r0, #24]
 8001dc4:	07d8      	lsls	r0, r3, #31
 8001dc6:	d530      	bpl.n	8001e2a <HAL_RCC_ClockConfig+0x12a>
 8001dc8:	4a5c      	ldr	r2, [pc, #368]	; (8001f3c <HAL_RCC_ClockConfig+0x23c>)
 8001dca:	68a1      	ldr	r1, [r4, #8]
 8001dcc:	6993      	ldr	r3, [r2, #24]
 8001dce:	f423 6370 	bic.w	r3, r3, #3840	; 0xf00
 8001dd2:	430b      	orrs	r3, r1
 8001dd4:	6193      	str	r3, [r2, #24]
 8001dd6:	6861      	ldr	r1, [r4, #4]
 8001dd8:	6813      	ldr	r3, [r2, #0]
 8001dda:	2902      	cmp	r1, #2
 8001ddc:	f000 80a1 	beq.w	8001f22 <HAL_RCC_ClockConfig+0x222>
 8001de0:	2903      	cmp	r1, #3
 8001de2:	f000 8098 	beq.w	8001f16 <HAL_RCC_ClockConfig+0x216>
 8001de6:	2901      	cmp	r1, #1
 8001de8:	f000 80a1 	beq.w	8001f2e <HAL_RCC_ClockConfig+0x22e>
 8001dec:	0758      	lsls	r0, r3, #29
 8001dee:	d59e      	bpl.n	8001d2e <HAL_RCC_ClockConfig+0x2e>
 8001df0:	4e52      	ldr	r6, [pc, #328]	; (8001f3c <HAL_RCC_ClockConfig+0x23c>)
 8001df2:	f241 3888 	movw	r8, #5000	; 0x1388
 8001df6:	6933      	ldr	r3, [r6, #16]
 8001df8:	f023 0307 	bic.w	r3, r3, #7
 8001dfc:	430b      	orrs	r3, r1
 8001dfe:	6133      	str	r3, [r6, #16]
 8001e00:	f7fe ff46 	bl	8000c90 <HAL_GetTick>
 8001e04:	4607      	mov	r7, r0
 8001e06:	e005      	b.n	8001e14 <HAL_RCC_ClockConfig+0x114>
 8001e08:	f7fe ff42 	bl	8000c90 <HAL_GetTick>
 8001e0c:	1bc0      	subs	r0, r0, r7
 8001e0e:	4540      	cmp	r0, r8
 8001e10:	f200 808b 	bhi.w	8001f2a <HAL_RCC_ClockConfig+0x22a>
 8001e14:	6933      	ldr	r3, [r6, #16]
 8001e16:	6862      	ldr	r2, [r4, #4]
 8001e18:	f003 0338 	and.w	r3, r3, #56	; 0x38
 8001e1c:	ebb3 0fc2 	cmp.w	r3, r2, lsl #3
 8001e20:	d1f2      	bne.n	8001e08 <HAL_RCC_ClockConfig+0x108>
 8001e22:	6823      	ldr	r3, [r4, #0]
 8001e24:	0799      	lsls	r1, r3, #30
 8001e26:	d506      	bpl.n	8001e36 <HAL_RCC_ClockConfig+0x136>
 8001e28:	68e1      	ldr	r1, [r4, #12]
 8001e2a:	4844      	ldr	r0, [pc, #272]	; (8001f3c <HAL_RCC_ClockConfig+0x23c>)
 8001e2c:	6982      	ldr	r2, [r0, #24]
 8001e2e:	f002 020f 	and.w	r2, r2, #15
 8001e32:	428a      	cmp	r2, r1
 8001e34:	d869      	bhi.n	8001f0a <HAL_RCC_ClockConfig+0x20a>
 8001e36:	4940      	ldr	r1, [pc, #256]	; (8001f38 <HAL_RCC_ClockConfig+0x238>)
 8001e38:	680a      	ldr	r2, [r1, #0]
 8001e3a:	f002 020f 	and.w	r2, r2, #15
 8001e3e:	42aa      	cmp	r2, r5
 8001e40:	d90a      	bls.n	8001e58 <HAL_RCC_ClockConfig+0x158>
 8001e42:	680a      	ldr	r2, [r1, #0]
 8001e44:	f022 020f 	bic.w	r2, r2, #15
 8001e48:	432a      	orrs	r2, r5
 8001e4a:	600a      	str	r2, [r1, #0]
 8001e4c:	680a      	ldr	r2, [r1, #0]
 8001e4e:	f002 020f 	and.w	r2, r2, #15
 8001e52:	42aa      	cmp	r2, r5
 8001e54:	f47f af6b 	bne.w	8001d2e <HAL_RCC_ClockConfig+0x2e>
 8001e58:	075a      	lsls	r2, r3, #29
 8001e5a:	d50b      	bpl.n	8001e74 <HAL_RCC_ClockConfig+0x174>
 8001e5c:	4937      	ldr	r1, [pc, #220]	; (8001f3c <HAL_RCC_ClockConfig+0x23c>)
 8001e5e:	6920      	ldr	r0, [r4, #16]
 8001e60:	698a      	ldr	r2, [r1, #24]
 8001e62:	f002 0270 	and.w	r2, r2, #112	; 0x70
 8001e66:	4290      	cmp	r0, r2
 8001e68:	d204      	bcs.n	8001e74 <HAL_RCC_ClockConfig+0x174>
 8001e6a:	698a      	ldr	r2, [r1, #24]
 8001e6c:	f022 0270 	bic.w	r2, r2, #112	; 0x70
 8001e70:	4302      	orrs	r2, r0
 8001e72:	618a      	str	r2, [r1, #24]
 8001e74:	071f      	lsls	r7, r3, #28
 8001e76:	d50b      	bpl.n	8001e90 <HAL_RCC_ClockConfig+0x190>
 8001e78:	4930      	ldr	r1, [pc, #192]	; (8001f3c <HAL_RCC_ClockConfig+0x23c>)
 8001e7a:	6960      	ldr	r0, [r4, #20]
 8001e7c:	69ca      	ldr	r2, [r1, #28]
 8001e7e:	f002 0270 	and.w	r2, r2, #112	; 0x70
 8001e82:	4290      	cmp	r0, r2
 8001e84:	d204      	bcs.n	8001e90 <HAL_RCC_ClockConfig+0x190>
 8001e86:	69ca      	ldr	r2, [r1, #28]
 8001e88:	f022 0270 	bic.w	r2, r2, #112	; 0x70
 8001e8c:	4302      	orrs	r2, r0
 8001e8e:	61ca      	str	r2, [r1, #28]
 8001e90:	06de      	lsls	r6, r3, #27
 8001e92:	d50b      	bpl.n	8001eac <HAL_RCC_ClockConfig+0x1ac>
 8001e94:	4929      	ldr	r1, [pc, #164]	; (8001f3c <HAL_RCC_ClockConfig+0x23c>)
 8001e96:	69a0      	ldr	r0, [r4, #24]
 8001e98:	69ca      	ldr	r2, [r1, #28]
 8001e9a:	f402 62e0 	and.w	r2, r2, #1792	; 0x700
 8001e9e:	4290      	cmp	r0, r2
 8001ea0:	d204      	bcs.n	8001eac <HAL_RCC_ClockConfig+0x1ac>
 8001ea2:	69ca      	ldr	r2, [r1, #28]
 8001ea4:	f422 62e0 	bic.w	r2, r2, #1792	; 0x700
 8001ea8:	4302      	orrs	r2, r0
 8001eaa:	61ca      	str	r2, [r1, #28]
 8001eac:	069d      	lsls	r5, r3, #26
 8001eae:	d50b      	bpl.n	8001ec8 <HAL_RCC_ClockConfig+0x1c8>
 8001eb0:	4a22      	ldr	r2, [pc, #136]	; (8001f3c <HAL_RCC_ClockConfig+0x23c>)
 8001eb2:	69e1      	ldr	r1, [r4, #28]
 8001eb4:	6a13      	ldr	r3, [r2, #32]
 8001eb6:	f003 0370 	and.w	r3, r3, #112	; 0x70
 8001eba:	4299      	cmp	r1, r3
 8001ebc:	d204      	bcs.n	8001ec8 <HAL_RCC_ClockConfig+0x1c8>
 8001ebe:	6a13      	ldr	r3, [r2, #32]
 8001ec0:	f023 0370 	bic.w	r3, r3, #112	; 0x70
 8001ec4:	430b      	orrs	r3, r1
 8001ec6:	6213      	str	r3, [r2, #32]
 8001ec8:	f7ff fe7a 	bl	8001bc0 <HAL_RCC_GetSysClockFreq>
 8001ecc:	4a1b      	ldr	r2, [pc, #108]	; (8001f3c <HAL_RCC_ClockConfig+0x23c>)
 8001ece:	4603      	mov	r3, r0
 8001ed0:	481b      	ldr	r0, [pc, #108]	; (8001f40 <HAL_RCC_ClockConfig+0x240>)
 8001ed2:	6991      	ldr	r1, [r2, #24]
 8001ed4:	6992      	ldr	r2, [r2, #24]
 8001ed6:	f3c1 2103 	ubfx	r1, r1, #8, #4
 8001eda:	4d1a      	ldr	r5, [pc, #104]	; (8001f44 <HAL_RCC_ClockConfig+0x244>)
 8001edc:	f002 020f 	and.w	r2, r2, #15
 8001ee0:	4c19      	ldr	r4, [pc, #100]	; (8001f48 <HAL_RCC_ClockConfig+0x248>)
 8001ee2:	5c41      	ldrb	r1, [r0, r1]
 8001ee4:	5c82      	ldrb	r2, [r0, r2]
 8001ee6:	f001 011f 	and.w	r1, r1, #31
 8001eea:	4818      	ldr	r0, [pc, #96]	; (8001f4c <HAL_RCC_ClockConfig+0x24c>)
 8001eec:	f002 021f 	and.w	r2, r2, #31
 8001ef0:	40cb      	lsrs	r3, r1
 8001ef2:	6800      	ldr	r0, [r0, #0]
 8001ef4:	602b      	str	r3, [r5, #0]
 8001ef6:	40d3      	lsrs	r3, r2
 8001ef8:	6023      	str	r3, [r4, #0]
 8001efa:	e8bd 41f0 	ldmia.w	sp!, {r4, r5, r6, r7, r8, lr}
 8001efe:	f7fe be65 	b.w	8000bcc <HAL_InitTick>
 8001f02:	07da      	lsls	r2, r3, #31
 8001f04:	f53f af60 	bmi.w	8001dc8 <HAL_RCC_ClockConfig+0xc8>
 8001f08:	e795      	b.n	8001e36 <HAL_RCC_ClockConfig+0x136>
 8001f0a:	6982      	ldr	r2, [r0, #24]
 8001f0c:	f022 020f 	bic.w	r2, r2, #15
 8001f10:	430a      	orrs	r2, r1
 8001f12:	6182      	str	r2, [r0, #24]
 8001f14:	e78f      	b.n	8001e36 <HAL_RCC_ClockConfig+0x136>
 8001f16:	019f      	lsls	r7, r3, #6
 8001f18:	f53f af6a 	bmi.w	8001df0 <HAL_RCC_ClockConfig+0xf0>
 8001f1c:	e707      	b.n	8001d2e <HAL_RCC_ClockConfig+0x2e>
 8001f1e:	2001      	movs	r0, #1
 8001f20:	4770      	bx	lr
 8001f22:	039b      	lsls	r3, r3, #14
 8001f24:	f53f af64 	bmi.w	8001df0 <HAL_RCC_ClockConfig+0xf0>
 8001f28:	e701      	b.n	8001d2e <HAL_RCC_ClockConfig+0x2e>
 8001f2a:	2003      	movs	r0, #3
 8001f2c:	e700      	b.n	8001d30 <HAL_RCC_ClockConfig+0x30>
 8001f2e:	05de      	lsls	r6, r3, #23
 8001f30:	f53f af5e 	bmi.w	8001df0 <HAL_RCC_ClockConfig+0xf0>
 8001f34:	e6fb      	b.n	8001d2e <HAL_RCC_ClockConfig+0x2e>
 8001f36:	bf00      	nop
 8001f38:	52002000 	.word	0x52002000
 8001f3c:	58024400 	.word	0x58024400
 8001f40:	08005b60 	.word	0x08005b60
 8001f44:	24000000 	.word	0x24000000
 8001f48:	24000004 	.word	0x24000004
 8001f4c:	2400000c 	.word	0x2400000c

08001f50 <HAL_RCC_GetHCLKFreq>:
 8001f50:	4a18      	ldr	r2, [pc, #96]	; (8001fb4 <HAL_RCC_GetHCLKFreq+0x64>)
 8001f52:	b538      	push	{r3, r4, r5, lr}
 8001f54:	6913      	ldr	r3, [r2, #16]
 8001f56:	f003 0338 	and.w	r3, r3, #56	; 0x38
 8001f5a:	2b10      	cmp	r3, #16
 8001f5c:	d01a      	beq.n	8001f94 <HAL_RCC_GetHCLKFreq+0x44>
 8001f5e:	2b18      	cmp	r3, #24
 8001f60:	d023      	beq.n	8001faa <HAL_RCC_GetHCLKFreq+0x5a>
 8001f62:	b1cb      	cbz	r3, 8001f98 <HAL_RCC_GetHCLKFreq+0x48>
 8001f64:	4814      	ldr	r0, [pc, #80]	; (8001fb8 <HAL_RCC_GetHCLKFreq+0x68>)
 8001f66:	4b13      	ldr	r3, [pc, #76]	; (8001fb4 <HAL_RCC_GetHCLKFreq+0x64>)
 8001f68:	4914      	ldr	r1, [pc, #80]	; (8001fbc <HAL_RCC_GetHCLKFreq+0x6c>)
 8001f6a:	699a      	ldr	r2, [r3, #24]
 8001f6c:	699b      	ldr	r3, [r3, #24]
 8001f6e:	f3c2 2203 	ubfx	r2, r2, #8, #4
 8001f72:	4c13      	ldr	r4, [pc, #76]	; (8001fc0 <HAL_RCC_GetHCLKFreq+0x70>)
 8001f74:	f003 030f 	and.w	r3, r3, #15
 8001f78:	4d12      	ldr	r5, [pc, #72]	; (8001fc4 <HAL_RCC_GetHCLKFreq+0x74>)
 8001f7a:	5c8a      	ldrb	r2, [r1, r2]
 8001f7c:	5ccb      	ldrb	r3, [r1, r3]
 8001f7e:	f002 021f 	and.w	r2, r2, #31
 8001f82:	fa20 f202 	lsr.w	r2, r0, r2
 8001f86:	f003 001f 	and.w	r0, r3, #31
 8001f8a:	fa22 f000 	lsr.w	r0, r2, r0
 8001f8e:	602a      	str	r2, [r5, #0]
 8001f90:	6020      	str	r0, [r4, #0]
 8001f92:	bd38      	pop	{r3, r4, r5, pc}
 8001f94:	480c      	ldr	r0, [pc, #48]	; (8001fc8 <HAL_RCC_GetHCLKFreq+0x78>)
 8001f96:	e7e6      	b.n	8001f66 <HAL_RCC_GetHCLKFreq+0x16>
 8001f98:	6813      	ldr	r3, [r2, #0]
 8001f9a:	069b      	lsls	r3, r3, #26
 8001f9c:	d508      	bpl.n	8001fb0 <HAL_RCC_GetHCLKFreq+0x60>
 8001f9e:	6813      	ldr	r3, [r2, #0]
 8001fa0:	480a      	ldr	r0, [pc, #40]	; (8001fcc <HAL_RCC_GetHCLKFreq+0x7c>)
 8001fa2:	f3c3 03c1 	ubfx	r3, r3, #3, #2
 8001fa6:	40d8      	lsrs	r0, r3
 8001fa8:	e7dd      	b.n	8001f66 <HAL_RCC_GetHCLKFreq+0x16>
 8001faa:	f7ff fa9f 	bl	80014ec <HAL_RCC_GetSysClockFreq.part.0>
 8001fae:	e7da      	b.n	8001f66 <HAL_RCC_GetHCLKFreq+0x16>
 8001fb0:	4806      	ldr	r0, [pc, #24]	; (8001fcc <HAL_RCC_GetHCLKFreq+0x7c>)
 8001fb2:	e7d8      	b.n	8001f66 <HAL_RCC_GetHCLKFreq+0x16>
 8001fb4:	58024400 	.word	0x58024400
 8001fb8:	003d0900 	.word	0x003d0900
 8001fbc:	08005b60 	.word	0x08005b60
 8001fc0:	24000004 	.word	0x24000004
 8001fc4:	24000000 	.word	0x24000000
 8001fc8:	007a1200 	.word	0x007a1200
 8001fcc:	03d09000 	.word	0x03d09000

08001fd0 <HAL_RCC_GetPCLK1Freq>:
 8001fd0:	4a1c      	ldr	r2, [pc, #112]	; (8002044 <HAL_RCC_GetPCLK1Freq+0x74>)
 8001fd2:	b538      	push	{r3, r4, r5, lr}
 8001fd4:	6913      	ldr	r3, [r2, #16]
 8001fd6:	f003 0338 	and.w	r3, r3, #56	; 0x38
 8001fda:	2b10      	cmp	r3, #16
 8001fdc:	d021      	beq.n	8002022 <HAL_RCC_GetPCLK1Freq+0x52>
 8001fde:	2b18      	cmp	r3, #24
 8001fe0:	d02a      	beq.n	8002038 <HAL_RCC_GetPCLK1Freq+0x68>
 8001fe2:	b303      	cbz	r3, 8002026 <HAL_RCC_GetPCLK1Freq+0x56>
 8001fe4:	4818      	ldr	r0, [pc, #96]	; (8002048 <HAL_RCC_GetPCLK1Freq+0x78>)
 8001fe6:	4a17      	ldr	r2, [pc, #92]	; (8002044 <HAL_RCC_GetPCLK1Freq+0x74>)
 8001fe8:	4918      	ldr	r1, [pc, #96]	; (800204c <HAL_RCC_GetPCLK1Freq+0x7c>)
 8001fea:	6993      	ldr	r3, [r2, #24]
 8001fec:	4c18      	ldr	r4, [pc, #96]	; (8002050 <HAL_RCC_GetPCLK1Freq+0x80>)
 8001fee:	f3c3 2303 	ubfx	r3, r3, #8, #4
 8001ff2:	4d18      	ldr	r5, [pc, #96]	; (8002054 <HAL_RCC_GetPCLK1Freq+0x84>)
 8001ff4:	5ccb      	ldrb	r3, [r1, r3]
 8001ff6:	f003 031f 	and.w	r3, r3, #31
 8001ffa:	40d8      	lsrs	r0, r3
 8001ffc:	6993      	ldr	r3, [r2, #24]
 8001ffe:	f003 030f 	and.w	r3, r3, #15
 8002002:	6028      	str	r0, [r5, #0]
 8002004:	5ccb      	ldrb	r3, [r1, r3]
 8002006:	f003 031f 	and.w	r3, r3, #31
 800200a:	fa20 f303 	lsr.w	r3, r0, r3
 800200e:	6023      	str	r3, [r4, #0]
 8002010:	69d2      	ldr	r2, [r2, #28]
 8002012:	f3c2 1202 	ubfx	r2, r2, #4, #3
 8002016:	5c88      	ldrb	r0, [r1, r2]
 8002018:	f000 001f 	and.w	r0, r0, #31
 800201c:	fa23 f000 	lsr.w	r0, r3, r0
 8002020:	bd38      	pop	{r3, r4, r5, pc}
 8002022:	480d      	ldr	r0, [pc, #52]	; (8002058 <HAL_RCC_GetPCLK1Freq+0x88>)
 8002024:	e7df      	b.n	8001fe6 <HAL_RCC_GetPCLK1Freq+0x16>
 8002026:	6813      	ldr	r3, [r2, #0]
 8002028:	069b      	lsls	r3, r3, #26
 800202a:	d508      	bpl.n	800203e <HAL_RCC_GetPCLK1Freq+0x6e>
 800202c:	6813      	ldr	r3, [r2, #0]
 800202e:	480b      	ldr	r0, [pc, #44]	; (800205c <HAL_RCC_GetPCLK1Freq+0x8c>)
 8002030:	f3c3 03c1 	ubfx	r3, r3, #3, #2
 8002034:	40d8      	lsrs	r0, r3
 8002036:	e7d6      	b.n	8001fe6 <HAL_RCC_GetPCLK1Freq+0x16>
 8002038:	f7ff fa58 	bl	80014ec <HAL_RCC_GetSysClockFreq.part.0>
 800203c:	e7d3      	b.n	8001fe6 <HAL_RCC_GetPCLK1Freq+0x16>
 800203e:	4807      	ldr	r0, [pc, #28]	; (800205c <HAL_RCC_GetPCLK1Freq+0x8c>)
 8002040:	e7d1      	b.n	8001fe6 <HAL_RCC_GetPCLK1Freq+0x16>
 8002042:	bf00      	nop
 8002044:	58024400 	.word	0x58024400
 8002048:	003d0900 	.word	0x003d0900
 800204c:	08005b60 	.word	0x08005b60
 8002050:	24000004 	.word	0x24000004
 8002054:	24000000 	.word	0x24000000
 8002058:	007a1200 	.word	0x007a1200
 800205c:	03d09000 	.word	0x03d09000

08002060 <HAL_RCC_GetPCLK2Freq>:
 8002060:	4a1c      	ldr	r2, [pc, #112]	; (80020d4 <HAL_RCC_GetPCLK2Freq+0x74>)
 8002062:	b538      	push	{r3, r4, r5, lr}
 8002064:	6913      	ldr	r3, [r2, #16]
 8002066:	f003 0338 	and.w	r3, r3, #56	; 0x38
 800206a:	2b10      	cmp	r3, #16
 800206c:	d021      	beq.n	80020b2 <HAL_RCC_GetPCLK2Freq+0x52>
 800206e:	2b18      	cmp	r3, #24
 8002070:	d02a      	beq.n	80020c8 <HAL_RCC_GetPCLK2Freq+0x68>
 8002072:	b303      	cbz	r3, 80020b6 <HAL_RCC_GetPCLK2Freq+0x56>
 8002074:	4818      	ldr	r0, [pc, #96]	; (80020d8 <HAL_RCC_GetPCLK2Freq+0x78>)
 8002076:	4a17      	ldr	r2, [pc, #92]	; (80020d4 <HAL_RCC_GetPCLK2Freq+0x74>)
 8002078:	4918      	ldr	r1, [pc, #96]	; (80020dc <HAL_RCC_GetPCLK2Freq+0x7c>)
 800207a:	6993      	ldr	r3, [r2, #24]
 800207c:	4c18      	ldr	r4, [pc, #96]	; (80020e0 <HAL_RCC_GetPCLK2Freq+0x80>)
 800207e:	f3c3 2303 	ubfx	r3, r3, #8, #4
 8002082:	4d18      	ldr	r5, [pc, #96]	; (80020e4 <HAL_RCC_GetPCLK2Freq+0x84>)
 8002084:	5ccb      	ldrb	r3, [r1, r3]
 8002086:	f003 031f 	and.w	r3, r3, #31
 800208a:	40d8      	lsrs	r0, r3
 800208c:	6993      	ldr	r3, [r2, #24]
 800208e:	f003 030f 	and.w	r3, r3, #15
 8002092:	6028      	str	r0, [r5, #0]
 8002094:	5ccb      	ldrb	r3, [r1, r3]
 8002096:	f003 031f 	and.w	r3, r3, #31
 800209a:	fa20 f303 	lsr.w	r3, r0, r3
 800209e:	6023      	str	r3, [r4, #0]
 80020a0:	69d2      	ldr	r2, [r2, #28]
 80020a2:	f3c2 2202 	ubfx	r2, r2, #8, #3
 80020a6:	5c88      	ldrb	r0, [r1, r2]
 80020a8:	f000 001f 	and.w	r0, r0, #31
 80020ac:	fa23 f000 	lsr.w	r0, r3, r0
 80020b0:	bd38      	pop	{r3, r4, r5, pc}
 80020b2:	480d      	ldr	r0, [pc, #52]	; (80020e8 <HAL_RCC_GetPCLK2Freq+0x88>)
 80020b4:	e7df      	b.n	8002076 <HAL_RCC_GetPCLK2Freq+0x16>
 80020b6:	6813      	ldr	r3, [r2, #0]
 80020b8:	069b      	lsls	r3, r3, #26
 80020ba:	d508      	bpl.n	80020ce <HAL_RCC_GetPCLK2Freq+0x6e>
 80020bc:	6813      	ldr	r3, [r2, #0]
 80020be:	480b      	ldr	r0, [pc, #44]	; (80020ec <HAL_RCC_GetPCLK2Freq+0x8c>)
 80020c0:	f3c3 03c1 	ubfx	r3, r3, #3, #2
 80020c4:	40d8      	lsrs	r0, r3
 80020c6:	e7d6      	b.n	8002076 <HAL_RCC_GetPCLK2Freq+0x16>
 80020c8:	f7ff fa10 	bl	80014ec <HAL_RCC_GetSysClockFreq.part.0>
 80020cc:	e7d3      	b.n	8002076 <HAL_RCC_GetPCLK2Freq+0x16>
 80020ce:	4807      	ldr	r0, [pc, #28]	; (80020ec <HAL_RCC_GetPCLK2Freq+0x8c>)
 80020d0:	e7d1      	b.n	8002076 <HAL_RCC_GetPCLK2Freq+0x16>
 80020d2:	bf00      	nop
 80020d4:	58024400 	.word	0x58024400
 80020d8:	003d0900 	.word	0x003d0900
 80020dc:	08005b60 	.word	0x08005b60
 80020e0:	24000004 	.word	0x24000004
 80020e4:	24000000 	.word	0x24000000
 80020e8:	007a1200 	.word	0x007a1200
 80020ec:	03d09000 	.word	0x03d09000

080020f0 <RCCEx_PLL2_Config>:
 80020f0:	b5f8      	push	{r3, r4, r5, r6, r7, lr}
 80020f2:	4c3a      	ldr	r4, [pc, #232]	; (80021dc <RCCEx_PLL2_Config+0xec>)
 80020f4:	6aa3      	ldr	r3, [r4, #40]	; 0x28
 80020f6:	f003 0303 	and.w	r3, r3, #3
 80020fa:	2b03      	cmp	r3, #3
 80020fc:	d067      	beq.n	80021ce <RCCEx_PLL2_Config+0xde>
 80020fe:	6823      	ldr	r3, [r4, #0]
 8002100:	4606      	mov	r6, r0
 8002102:	460f      	mov	r7, r1
 8002104:	f023 6380 	bic.w	r3, r3, #67108864	; 0x4000000
 8002108:	6023      	str	r3, [r4, #0]
 800210a:	f7fe fdc1 	bl	8000c90 <HAL_GetTick>
 800210e:	4605      	mov	r5, r0
 8002110:	e004      	b.n	800211c <RCCEx_PLL2_Config+0x2c>
 8002112:	f7fe fdbd 	bl	8000c90 <HAL_GetTick>
 8002116:	1b43      	subs	r3, r0, r5
 8002118:	2b02      	cmp	r3, #2
 800211a:	d856      	bhi.n	80021ca <RCCEx_PLL2_Config+0xda>
 800211c:	6823      	ldr	r3, [r4, #0]
 800211e:	011a      	lsls	r2, r3, #4
 8002120:	d4f7      	bmi.n	8002112 <RCCEx_PLL2_Config+0x22>
 8002122:	6aa3      	ldr	r3, [r4, #40]	; 0x28
 8002124:	6832      	ldr	r2, [r6, #0]
 8002126:	f423 337c 	bic.w	r3, r3, #258048	; 0x3f000
 800212a:	ea43 3302 	orr.w	r3, r3, r2, lsl #12
 800212e:	62a3      	str	r3, [r4, #40]	; 0x28
 8002130:	e9d6 3202 	ldrd	r3, r2, [r6, #8]
 8002134:	3b01      	subs	r3, #1
 8002136:	3a01      	subs	r2, #1
 8002138:	025b      	lsls	r3, r3, #9
 800213a:	0412      	lsls	r2, r2, #16
 800213c:	b29b      	uxth	r3, r3
 800213e:	f402 02fe 	and.w	r2, r2, #8323072	; 0x7f0000
 8002142:	4313      	orrs	r3, r2
 8002144:	6872      	ldr	r2, [r6, #4]
 8002146:	3a01      	subs	r2, #1
 8002148:	f3c2 0208 	ubfx	r2, r2, #0, #9
 800214c:	4313      	orrs	r3, r2
 800214e:	6932      	ldr	r2, [r6, #16]
 8002150:	3a01      	subs	r2, #1
 8002152:	0612      	lsls	r2, r2, #24
 8002154:	f002 42fe 	and.w	r2, r2, #2130706432	; 0x7f000000
 8002158:	4313      	orrs	r3, r2
 800215a:	63a3      	str	r3, [r4, #56]	; 0x38
 800215c:	6ae3      	ldr	r3, [r4, #44]	; 0x2c
 800215e:	6972      	ldr	r2, [r6, #20]
 8002160:	f023 03c0 	bic.w	r3, r3, #192	; 0xc0
 8002164:	4313      	orrs	r3, r2
 8002166:	62e3      	str	r3, [r4, #44]	; 0x2c
 8002168:	6ae2      	ldr	r2, [r4, #44]	; 0x2c
 800216a:	69b3      	ldr	r3, [r6, #24]
 800216c:	f022 0220 	bic.w	r2, r2, #32
 8002170:	431a      	orrs	r2, r3
 8002172:	4b1b      	ldr	r3, [pc, #108]	; (80021e0 <RCCEx_PLL2_Config+0xf0>)
 8002174:	62e2      	str	r2, [r4, #44]	; 0x2c
 8002176:	6ae2      	ldr	r2, [r4, #44]	; 0x2c
 8002178:	f022 0210 	bic.w	r2, r2, #16
 800217c:	62e2      	str	r2, [r4, #44]	; 0x2c
 800217e:	6be1      	ldr	r1, [r4, #60]	; 0x3c
 8002180:	69f2      	ldr	r2, [r6, #28]
 8002182:	400b      	ands	r3, r1
 8002184:	ea43 03c2 	orr.w	r3, r3, r2, lsl #3
 8002188:	63e3      	str	r3, [r4, #60]	; 0x3c
 800218a:	6ae3      	ldr	r3, [r4, #44]	; 0x2c
 800218c:	f043 0310 	orr.w	r3, r3, #16
 8002190:	62e3      	str	r3, [r4, #44]	; 0x2c
 8002192:	6ae3      	ldr	r3, [r4, #44]	; 0x2c
 8002194:	b1ef      	cbz	r7, 80021d2 <RCCEx_PLL2_Config+0xe2>
 8002196:	2f01      	cmp	r7, #1
 8002198:	bf0c      	ite	eq
 800219a:	f443 1380 	orreq.w	r3, r3, #1048576	; 0x100000
 800219e:	f443 1300 	orrne.w	r3, r3, #2097152	; 0x200000
 80021a2:	62e3      	str	r3, [r4, #44]	; 0x2c
 80021a4:	4c0d      	ldr	r4, [pc, #52]	; (80021dc <RCCEx_PLL2_Config+0xec>)
 80021a6:	6823      	ldr	r3, [r4, #0]
 80021a8:	f043 6380 	orr.w	r3, r3, #67108864	; 0x4000000
 80021ac:	6023      	str	r3, [r4, #0]
 80021ae:	f7fe fd6f 	bl	8000c90 <HAL_GetTick>
 80021b2:	4605      	mov	r5, r0
 80021b4:	e004      	b.n	80021c0 <RCCEx_PLL2_Config+0xd0>
 80021b6:	f7fe fd6b 	bl	8000c90 <HAL_GetTick>
 80021ba:	1b40      	subs	r0, r0, r5
 80021bc:	2802      	cmp	r0, #2
 80021be:	d804      	bhi.n	80021ca <RCCEx_PLL2_Config+0xda>
 80021c0:	6823      	ldr	r3, [r4, #0]
 80021c2:	011b      	lsls	r3, r3, #4
 80021c4:	d5f7      	bpl.n	80021b6 <RCCEx_PLL2_Config+0xc6>
 80021c6:	2000      	movs	r0, #0
 80021c8:	bdf8      	pop	{r3, r4, r5, r6, r7, pc}
 80021ca:	2003      	movs	r0, #3
 80021cc:	bdf8      	pop	{r3, r4, r5, r6, r7, pc}
 80021ce:	2001      	movs	r0, #1
 80021d0:	bdf8      	pop	{r3, r4, r5, r6, r7, pc}
 80021d2:	f443 2300 	orr.w	r3, r3, #524288	; 0x80000
 80021d6:	62e3      	str	r3, [r4, #44]	; 0x2c
 80021d8:	e7e4      	b.n	80021a4 <RCCEx_PLL2_Config+0xb4>
 80021da:	bf00      	nop
 80021dc:	58024400 	.word	0x58024400
 80021e0:	ffff0007 	.word	0xffff0007

080021e4 <RCCEx_PLL3_Config>:
 80021e4:	b5f8      	push	{r3, r4, r5, r6, r7, lr}
 80021e6:	4c3a      	ldr	r4, [pc, #232]	; (80022d0 <RCCEx_PLL3_Config+0xec>)
 80021e8:	6aa3      	ldr	r3, [r4, #40]	; 0x28
 80021ea:	f003 0303 	and.w	r3, r3, #3
 80021ee:	2b03      	cmp	r3, #3
 80021f0:	d067      	beq.n	80022c2 <RCCEx_PLL3_Config+0xde>
 80021f2:	6823      	ldr	r3, [r4, #0]
 80021f4:	4606      	mov	r6, r0
 80021f6:	460f      	mov	r7, r1
 80021f8:	f023 5380 	bic.w	r3, r3, #268435456	; 0x10000000
 80021fc:	6023      	str	r3, [r4, #0]
 80021fe:	f7fe fd47 	bl	8000c90 <HAL_GetTick>
 8002202:	4605      	mov	r5, r0
 8002204:	e004      	b.n	8002210 <RCCEx_PLL3_Config+0x2c>
 8002206:	f7fe fd43 	bl	8000c90 <HAL_GetTick>
 800220a:	1b43      	subs	r3, r0, r5
 800220c:	2b02      	cmp	r3, #2
 800220e:	d856      	bhi.n	80022be <RCCEx_PLL3_Config+0xda>
 8002210:	6823      	ldr	r3, [r4, #0]
 8002212:	009a      	lsls	r2, r3, #2
 8002214:	d4f7      	bmi.n	8002206 <RCCEx_PLL3_Config+0x22>
 8002216:	6aa3      	ldr	r3, [r4, #40]	; 0x28
 8002218:	6832      	ldr	r2, [r6, #0]
 800221a:	f023 737c 	bic.w	r3, r3, #66060288	; 0x3f00000
 800221e:	ea43 5302 	orr.w	r3, r3, r2, lsl #20
 8002222:	62a3      	str	r3, [r4, #40]	; 0x28
 8002224:	e9d6 3202 	ldrd	r3, r2, [r6, #8]
 8002228:	3b01      	subs	r3, #1
 800222a:	3a01      	subs	r2, #1
 800222c:	025b      	lsls	r3, r3, #9
 800222e:	0412      	lsls	r2, r2, #16
 8002230:	b29b      	uxth	r3, r3
 8002232:	f402 02fe 	and.w	r2, r2, #8323072	; 0x7f0000
 8002236:	4313      	orrs	r3, r2
 8002238:	6872      	ldr	r2, [r6, #4]
 800223a:	3a01      	subs	r2, #1
 800223c:	f3c2 0208 	ubfx	r2, r2, #0, #9
 8002240:	4313      	orrs	r3, r2
 8002242:	6932      	ldr	r2, [r6, #16]
 8002244:	3a01      	subs	r2, #1
 8002246:	0612      	lsls	r2, r2, #24
 8002248:	f002 42fe 	and.w	r2, r2, #2130706432	; 0x7f000000
 800224c:	4313      	orrs	r3, r2
 800224e:	6423      	str	r3, [r4, #64]	; 0x40
 8002250:	6ae3      	ldr	r3, [r4, #44]	; 0x2c
 8002252:	6972      	ldr	r2, [r6, #20]
 8002254:	f423 6340 	bic.w	r3, r3, #3072	; 0xc00
 8002258:	4313      	orrs	r3, r2
 800225a:	62e3      	str	r3, [r4, #44]	; 0x2c
 800225c:	6ae2      	ldr	r2, [r4, #44]	; 0x2c
 800225e:	69b3      	ldr	r3, [r6, #24]
 8002260:	f422 7200 	bic.w	r2, r2, #512	; 0x200
 8002264:	431a      	orrs	r2, r3
 8002266:	4b1b      	ldr	r3, [pc, #108]	; (80022d4 <RCCEx_PLL3_Config+0xf0>)
 8002268:	62e2      	str	r2, [r4, #44]	; 0x2c
 800226a:	6ae2      	ldr	r2, [r4, #44]	; 0x2c
 800226c:	f422 7280 	bic.w	r2, r2, #256	; 0x100
 8002270:	62e2      	str	r2, [r4, #44]	; 0x2c
 8002272:	6c61      	ldr	r1, [r4, #68]	; 0x44
 8002274:	69f2      	ldr	r2, [r6, #28]
 8002276:	400b      	ands	r3, r1
 8002278:	ea43 03c2 	orr.w	r3, r3, r2, lsl #3
 800227c:	6463      	str	r3, [r4, #68]	; 0x44
 800227e:	6ae3      	ldr	r3, [r4, #44]	; 0x2c
 8002280:	f443 7380 	orr.w	r3, r3, #256	; 0x100
 8002284:	62e3      	str	r3, [r4, #44]	; 0x2c
 8002286:	6ae3      	ldr	r3, [r4, #44]	; 0x2c
 8002288:	b1ef      	cbz	r7, 80022c6 <RCCEx_PLL3_Config+0xe2>
 800228a:	2f01      	cmp	r7, #1
 800228c:	bf0c      	ite	eq
 800228e:	f443 0300 	orreq.w	r3, r3, #8388608	; 0x800000
 8002292:	f043 7380 	orrne.w	r3, r3, #16777216	; 0x1000000
 8002296:	62e3      	str	r3, [r4, #44]	; 0x2c
 8002298:	4c0d      	ldr	r4, [pc, #52]	; (80022d0 <RCCEx_PLL3_Config+0xec>)
 800229a:	6823      	ldr	r3, [r4, #0]
 800229c:	f043 5380 	orr.w	r3, r3, #268435456	; 0x10000000
 80022a0:	6023      	str	r3, [r4, #0]
 80022a2:	f7fe fcf5 	bl	8000c90 <HAL_GetTick>
 80022a6:	4605      	mov	r5, r0
 80022a8:	e004      	b.n	80022b4 <RCCEx_PLL3_Config+0xd0>
 80022aa:	f7fe fcf1 	bl	8000c90 <HAL_GetTick>
 80022ae:	1b40      	subs	r0, r0, r5
 80022b0:	2802      	cmp	r0, #2
 80022b2:	d804      	bhi.n	80022be <RCCEx_PLL3_Config+0xda>
 80022b4:	6823      	ldr	r3, [r4, #0]
 80022b6:	009b      	lsls	r3, r3, #2
 80022b8:	d5f7      	bpl.n	80022aa <RCCEx_PLL3_Config+0xc6>
 80022ba:	2000      	movs	r0, #0
 80022bc:	bdf8      	pop	{r3, r4, r5, r6, r7, pc}
 80022be:	2003      	movs	r0, #3
 80022c0:	bdf8      	pop	{r3, r4, r5, r6, r7, pc}
 80022c2:	2001      	movs	r0, #1
 80022c4:	bdf8      	pop	{r3, r4, r5, r6, r7, pc}
 80022c6:	f443 0380 	orr.w	r3, r3, #4194304	; 0x400000
 80022ca:	62e3      	str	r3, [r4, #44]	; 0x2c
 80022cc:	e7e4      	b.n	8002298 <RCCEx_PLL3_Config+0xb4>
 80022ce:	bf00      	nop
 80022d0:	58024400 	.word	0x58024400
 80022d4:	ffff0007 	.word	0xffff0007

080022d8 <HAL_RCCEx_PeriphCLKConfig>:
 80022d8:	e92d 43f8 	stmdb	sp!, {r3, r4, r5, r6, r7, r8, r9, lr}
 80022dc:	e9d0 3200 	ldrd	r3, r2, [r0]
 80022e0:	4604      	mov	r4, r0
 80022e2:	0118      	lsls	r0, r3, #4
 80022e4:	f003 6600 	and.w	r6, r3, #134217728	; 0x8000000
 80022e8:	d51e      	bpl.n	8002328 <HAL_RCCEx_PeriphCLKConfig+0x50>
 80022ea:	6ee1      	ldr	r1, [r4, #108]	; 0x6c
 80022ec:	f5b1 1f00 	cmp.w	r1, #2097152	; 0x200000
 80022f0:	f000 850a 	beq.w	8002d08 <HAL_RCCEx_PeriphCLKConfig+0xa30>
 80022f4:	d825      	bhi.n	8002342 <HAL_RCCEx_PeriphCLKConfig+0x6a>
 80022f6:	2900      	cmp	r1, #0
 80022f8:	f000 8435 	beq.w	8002b66 <HAL_RCCEx_PeriphCLKConfig+0x88e>
 80022fc:	f5b1 1f80 	cmp.w	r1, #1048576	; 0x100000
 8002300:	d122      	bne.n	8002348 <HAL_RCCEx_PeriphCLKConfig+0x70>
 8002302:	2102      	movs	r1, #2
 8002304:	f104 0008 	add.w	r0, r4, #8
 8002308:	f7ff fef2 	bl	80020f0 <RCCEx_PLL2_Config>
 800230c:	4606      	mov	r6, r0
 800230e:	2e00      	cmp	r6, #0
 8002310:	f040 853b 	bne.w	8002d8a <HAL_RCCEx_PeriphCLKConfig+0xab2>
 8002314:	6ee1      	ldr	r1, [r4, #108]	; 0x6c
 8002316:	e9d4 3200 	ldrd	r3, r2, [r4]
 800231a:	4d9f      	ldr	r5, [pc, #636]	; (8002598 <HAL_RCCEx_PeriphCLKConfig+0x2c0>)
 800231c:	2600      	movs	r6, #0
 800231e:	6d28      	ldr	r0, [r5, #80]	; 0x50
 8002320:	f420 1040 	bic.w	r0, r0, #3145728	; 0x300000
 8002324:	4301      	orrs	r1, r0
 8002326:	6529      	str	r1, [r5, #80]	; 0x50
 8002328:	05d9      	lsls	r1, r3, #23
 800232a:	d511      	bpl.n	8002350 <HAL_RCCEx_PeriphCLKConfig+0x78>
 800232c:	6da1      	ldr	r1, [r4, #88]	; 0x58
 800232e:	2904      	cmp	r1, #4
 8002330:	f200 858c 	bhi.w	8002e4c <HAL_RCCEx_PeriphCLKConfig+0xb74>
 8002334:	e8df f011 	tbh	[pc, r1, lsl #1]
 8002338:	04f904f2 	.word	0x04f904f2
 800233c:	03040502 	.word	0x03040502
 8002340:	0304      	.short	0x0304
 8002342:	f5b1 1f40 	cmp.w	r1, #3145728	; 0x300000
 8002346:	d0e8      	beq.n	800231a <HAL_RCCEx_PeriphCLKConfig+0x42>
 8002348:	05d9      	lsls	r1, r3, #23
 800234a:	f04f 0601 	mov.w	r6, #1
 800234e:	d4ed      	bmi.n	800232c <HAL_RCCEx_PeriphCLKConfig+0x54>
 8002350:	4635      	mov	r5, r6
 8002352:	059f      	lsls	r7, r3, #22
 8002354:	d51d      	bpl.n	8002392 <HAL_RCCEx_PeriphCLKConfig+0xba>
 8002356:	6de1      	ldr	r1, [r4, #92]	; 0x5c
 8002358:	2980      	cmp	r1, #128	; 0x80
 800235a:	f000 8502 	beq.w	8002d62 <HAL_RCCEx_PeriphCLKConfig+0xa8a>
 800235e:	f200 80d1 	bhi.w	8002504 <HAL_RCCEx_PeriphCLKConfig+0x22c>
 8002362:	2900      	cmp	r1, #0
 8002364:	f000 8412 	beq.w	8002b8c <HAL_RCCEx_PeriphCLKConfig+0x8b4>
 8002368:	2940      	cmp	r1, #64	; 0x40
 800236a:	f040 80d4 	bne.w	8002516 <HAL_RCCEx_PeriphCLKConfig+0x23e>
 800236e:	2100      	movs	r1, #0
 8002370:	f104 0008 	add.w	r0, r4, #8
 8002374:	f7ff febc 	bl	80020f0 <RCCEx_PLL2_Config>
 8002378:	4605      	mov	r5, r0
 800237a:	e9d4 3200 	ldrd	r3, r2, [r4]
 800237e:	2d00      	cmp	r5, #0
 8002380:	f040 83d7 	bne.w	8002b32 <HAL_RCCEx_PeriphCLKConfig+0x85a>
 8002384:	4f84      	ldr	r7, [pc, #528]	; (8002598 <HAL_RCCEx_PeriphCLKConfig+0x2c0>)
 8002386:	6de0      	ldr	r0, [r4, #92]	; 0x5c
 8002388:	6d39      	ldr	r1, [r7, #80]	; 0x50
 800238a:	f421 71e0 	bic.w	r1, r1, #448	; 0x1c0
 800238e:	4301      	orrs	r1, r0
 8002390:	6539      	str	r1, [r7, #80]	; 0x50
 8002392:	0558      	lsls	r0, r3, #21
 8002394:	d51f      	bpl.n	80023d6 <HAL_RCCEx_PeriphCLKConfig+0xfe>
 8002396:	6e21      	ldr	r1, [r4, #96]	; 0x60
 8002398:	f5b1 6f80 	cmp.w	r1, #1024	; 0x400
 800239c:	f000 84eb 	beq.w	8002d76 <HAL_RCCEx_PeriphCLKConfig+0xa9e>
 80023a0:	f200 80bc 	bhi.w	800251c <HAL_RCCEx_PeriphCLKConfig+0x244>
 80023a4:	2900      	cmp	r1, #0
 80023a6:	f000 83e5 	beq.w	8002b74 <HAL_RCCEx_PeriphCLKConfig+0x89c>
 80023aa:	f5b1 7f00 	cmp.w	r1, #512	; 0x200
 80023ae:	f040 80bf 	bne.w	8002530 <HAL_RCCEx_PeriphCLKConfig+0x258>
 80023b2:	2100      	movs	r1, #0
 80023b4:	f104 0008 	add.w	r0, r4, #8
 80023b8:	f7ff fe9a 	bl	80020f0 <RCCEx_PLL2_Config>
 80023bc:	4605      	mov	r5, r0
 80023be:	e9d4 3200 	ldrd	r3, r2, [r4]
 80023c2:	2d00      	cmp	r5, #0
 80023c4:	f040 83bb 	bne.w	8002b3e <HAL_RCCEx_PeriphCLKConfig+0x866>
 80023c8:	4f73      	ldr	r7, [pc, #460]	; (8002598 <HAL_RCCEx_PeriphCLKConfig+0x2c0>)
 80023ca:	6e20      	ldr	r0, [r4, #96]	; 0x60
 80023cc:	6d39      	ldr	r1, [r7, #80]	; 0x50
 80023ce:	f421 6160 	bic.w	r1, r1, #3584	; 0xe00
 80023d2:	4301      	orrs	r1, r0
 80023d4:	6539      	str	r1, [r7, #80]	; 0x50
 80023d6:	0199      	lsls	r1, r3, #6
 80023d8:	d518      	bpl.n	800240c <HAL_RCCEx_PeriphCLKConfig+0x134>
 80023da:	6ce1      	ldr	r1, [r4, #76]	; 0x4c
 80023dc:	2920      	cmp	r1, #32
 80023de:	f000 8456 	beq.w	8002c8e <HAL_RCCEx_PeriphCLKConfig+0x9b6>
 80023e2:	f200 80a8 	bhi.w	8002536 <HAL_RCCEx_PeriphCLKConfig+0x25e>
 80023e6:	b139      	cbz	r1, 80023f8 <HAL_RCCEx_PeriphCLKConfig+0x120>
 80023e8:	2910      	cmp	r1, #16
 80023ea:	f040 80a7 	bne.w	800253c <HAL_RCCEx_PeriphCLKConfig+0x264>
 80023ee:	486a      	ldr	r0, [pc, #424]	; (8002598 <HAL_RCCEx_PeriphCLKConfig+0x2c0>)
 80023f0:	6ac1      	ldr	r1, [r0, #44]	; 0x2c
 80023f2:	f441 3100 	orr.w	r1, r1, #131072	; 0x20000
 80023f6:	62c1      	str	r1, [r0, #44]	; 0x2c
 80023f8:	2d00      	cmp	r5, #0
 80023fa:	f040 83d4 	bne.w	8002ba6 <HAL_RCCEx_PeriphCLKConfig+0x8ce>
 80023fe:	4f66      	ldr	r7, [pc, #408]	; (8002598 <HAL_RCCEx_PeriphCLKConfig+0x2c0>)
 8002400:	6ce0      	ldr	r0, [r4, #76]	; 0x4c
 8002402:	6cf9      	ldr	r1, [r7, #76]	; 0x4c
 8002404:	f021 0130 	bic.w	r1, r1, #48	; 0x30
 8002408:	4301      	orrs	r1, r0
 800240a:	64f9      	str	r1, [r7, #76]	; 0x4c
 800240c:	04df      	lsls	r7, r3, #19
 800240e:	d51f      	bpl.n	8002450 <HAL_RCCEx_PeriphCLKConfig+0x178>
 8002410:	6e61      	ldr	r1, [r4, #100]	; 0x64
 8002412:	f5b1 5f00 	cmp.w	r1, #8192	; 0x2000
 8002416:	f000 849a 	beq.w	8002d4e <HAL_RCCEx_PeriphCLKConfig+0xa76>
 800241a:	f200 8092 	bhi.w	8002542 <HAL_RCCEx_PeriphCLKConfig+0x26a>
 800241e:	2900      	cmp	r1, #0
 8002420:	f000 83ae 	beq.w	8002b80 <HAL_RCCEx_PeriphCLKConfig+0x8a8>
 8002424:	f5b1 5f80 	cmp.w	r1, #4096	; 0x1000
 8002428:	f040 8093 	bne.w	8002552 <HAL_RCCEx_PeriphCLKConfig+0x27a>
 800242c:	2100      	movs	r1, #0
 800242e:	f104 0008 	add.w	r0, r4, #8
 8002432:	f7ff fe5d 	bl	80020f0 <RCCEx_PLL2_Config>
 8002436:	4605      	mov	r5, r0
 8002438:	e9d4 3200 	ldrd	r3, r2, [r4]
 800243c:	2d00      	cmp	r5, #0
 800243e:	f040 837a 	bne.w	8002b36 <HAL_RCCEx_PeriphCLKConfig+0x85e>
 8002442:	4f55      	ldr	r7, [pc, #340]	; (8002598 <HAL_RCCEx_PeriphCLKConfig+0x2c0>)
 8002444:	6e60      	ldr	r0, [r4, #100]	; 0x64
 8002446:	6d39      	ldr	r1, [r7, #80]	; 0x50
 8002448:	f421 41e0 	bic.w	r1, r1, #28672	; 0x7000
 800244c:	4301      	orrs	r1, r0
 800244e:	6539      	str	r1, [r7, #80]	; 0x50
 8002450:	0498      	lsls	r0, r3, #18
 8002452:	d51b      	bpl.n	800248c <HAL_RCCEx_PeriphCLKConfig+0x1b4>
 8002454:	6ea1      	ldr	r1, [r4, #104]	; 0x68
 8002456:	f5b1 3f00 	cmp.w	r1, #131072	; 0x20000
 800245a:	f000 83f7 	beq.w	8002c4c <HAL_RCCEx_PeriphCLKConfig+0x974>
 800245e:	d87b      	bhi.n	8002558 <HAL_RCCEx_PeriphCLKConfig+0x280>
 8002460:	b151      	cbz	r1, 8002478 <HAL_RCCEx_PeriphCLKConfig+0x1a0>
 8002462:	f5b1 3f80 	cmp.w	r1, #65536	; 0x10000
 8002466:	d17f      	bne.n	8002568 <HAL_RCCEx_PeriphCLKConfig+0x290>
 8002468:	2101      	movs	r1, #1
 800246a:	f104 0008 	add.w	r0, r4, #8
 800246e:	f7ff fe3f 	bl	80020f0 <RCCEx_PLL2_Config>
 8002472:	4605      	mov	r5, r0
 8002474:	e9d4 3200 	ldrd	r3, r2, [r4]
 8002478:	2d00      	cmp	r5, #0
 800247a:	f040 839c 	bne.w	8002bb6 <HAL_RCCEx_PeriphCLKConfig+0x8de>
 800247e:	4f46      	ldr	r7, [pc, #280]	; (8002598 <HAL_RCCEx_PeriphCLKConfig+0x2c0>)
 8002480:	6ea0      	ldr	r0, [r4, #104]	; 0x68
 8002482:	6d39      	ldr	r1, [r7, #80]	; 0x50
 8002484:	f421 21e0 	bic.w	r1, r1, #458752	; 0x70000
 8002488:	4301      	orrs	r1, r0
 800248a:	6539      	str	r1, [r7, #80]	; 0x50
 800248c:	0459      	lsls	r1, r3, #17
 800248e:	d51d      	bpl.n	80024cc <HAL_RCCEx_PeriphCLKConfig+0x1f4>
 8002490:	f8d4 10b0 	ldr.w	r1, [r4, #176]	; 0xb0
 8002494:	f1b1 5f00 	cmp.w	r1, #536870912	; 0x20000000
 8002498:	f000 83e3 	beq.w	8002c62 <HAL_RCCEx_PeriphCLKConfig+0x98a>
 800249c:	d867      	bhi.n	800256e <HAL_RCCEx_PeriphCLKConfig+0x296>
 800249e:	b151      	cbz	r1, 80024b6 <HAL_RCCEx_PeriphCLKConfig+0x1de>
 80024a0:	f1b1 5f80 	cmp.w	r1, #268435456	; 0x10000000
 80024a4:	d16a      	bne.n	800257c <HAL_RCCEx_PeriphCLKConfig+0x2a4>
 80024a6:	2101      	movs	r1, #1
 80024a8:	f104 0008 	add.w	r0, r4, #8
 80024ac:	f7ff fe20 	bl	80020f0 <RCCEx_PLL2_Config>
 80024b0:	4605      	mov	r5, r0
 80024b2:	e9d4 3200 	ldrd	r3, r2, [r4]
 80024b6:	2d00      	cmp	r5, #0
 80024b8:	f040 837b 	bne.w	8002bb2 <HAL_RCCEx_PeriphCLKConfig+0x8da>
 80024bc:	4f36      	ldr	r7, [pc, #216]	; (8002598 <HAL_RCCEx_PeriphCLKConfig+0x2c0>)
 80024be:	f8d4 00b0 	ldr.w	r0, [r4, #176]	; 0xb0
 80024c2:	6db9      	ldr	r1, [r7, #88]	; 0x58
 80024c4:	f021 41e0 	bic.w	r1, r1, #1879048192	; 0x70000000
 80024c8:	4301      	orrs	r1, r0
 80024ca:	65b9      	str	r1, [r7, #88]	; 0x58
 80024cc:	041f      	lsls	r7, r3, #16
 80024ce:	d50d      	bpl.n	80024ec <HAL_RCCEx_PeriphCLKConfig+0x214>
 80024d0:	6fa1      	ldr	r1, [r4, #120]	; 0x78
 80024d2:	f1b1 5f80 	cmp.w	r1, #268435456	; 0x10000000
 80024d6:	f000 83a1 	beq.w	8002c1c <HAL_RCCEx_PeriphCLKConfig+0x944>
 80024da:	f1b1 5f00 	cmp.w	r1, #536870912	; 0x20000000
 80024de:	f000 8265 	beq.w	80029ac <HAL_RCCEx_PeriphCLKConfig+0x6d4>
 80024e2:	2900      	cmp	r1, #0
 80024e4:	f000 826a 	beq.w	80029bc <HAL_RCCEx_PeriphCLKConfig+0x6e4>
 80024e8:	2601      	movs	r6, #1
 80024ea:	4635      	mov	r5, r6
 80024ec:	01d8      	lsls	r0, r3, #7
 80024ee:	d564      	bpl.n	80025ba <HAL_RCCEx_PeriphCLKConfig+0x2e2>
 80024f0:	6ca1      	ldr	r1, [r4, #72]	; 0x48
 80024f2:	2903      	cmp	r1, #3
 80024f4:	f200 84a6 	bhi.w	8002e44 <HAL_RCCEx_PeriphCLKConfig+0xb6c>
 80024f8:	e8df f011 	tbh	[pc, r1, lsl #1]
 80024fc:	00500055 	.word	0x00500055
 8002500:	005503be 	.word	0x005503be
 8002504:	f021 0040 	bic.w	r0, r1, #64	; 0x40
 8002508:	f5b0 7f80 	cmp.w	r0, #256	; 0x100
 800250c:	f43f af37 	beq.w	800237e <HAL_RCCEx_PeriphCLKConfig+0xa6>
 8002510:	29c0      	cmp	r1, #192	; 0xc0
 8002512:	f43f af34 	beq.w	800237e <HAL_RCCEx_PeriphCLKConfig+0xa6>
 8002516:	2601      	movs	r6, #1
 8002518:	4635      	mov	r5, r6
 800251a:	e73a      	b.n	8002392 <HAL_RCCEx_PeriphCLKConfig+0xba>
 800251c:	f421 7000 	bic.w	r0, r1, #512	; 0x200
 8002520:	f5b0 6f00 	cmp.w	r0, #2048	; 0x800
 8002524:	f43f af4d 	beq.w	80023c2 <HAL_RCCEx_PeriphCLKConfig+0xea>
 8002528:	f5b1 6fc0 	cmp.w	r1, #1536	; 0x600
 800252c:	f43f af49 	beq.w	80023c2 <HAL_RCCEx_PeriphCLKConfig+0xea>
 8002530:	2601      	movs	r6, #1
 8002532:	4635      	mov	r5, r6
 8002534:	e74f      	b.n	80023d6 <HAL_RCCEx_PeriphCLKConfig+0xfe>
 8002536:	2930      	cmp	r1, #48	; 0x30
 8002538:	f43f af5e 	beq.w	80023f8 <HAL_RCCEx_PeriphCLKConfig+0x120>
 800253c:	2601      	movs	r6, #1
 800253e:	4635      	mov	r5, r6
 8002540:	e764      	b.n	800240c <HAL_RCCEx_PeriphCLKConfig+0x134>
 8002542:	f5b1 5f40 	cmp.w	r1, #12288	; 0x3000
 8002546:	f43f af79 	beq.w	800243c <HAL_RCCEx_PeriphCLKConfig+0x164>
 800254a:	f5b1 4f80 	cmp.w	r1, #16384	; 0x4000
 800254e:	f43f af75 	beq.w	800243c <HAL_RCCEx_PeriphCLKConfig+0x164>
 8002552:	2601      	movs	r6, #1
 8002554:	4635      	mov	r5, r6
 8002556:	e77b      	b.n	8002450 <HAL_RCCEx_PeriphCLKConfig+0x178>
 8002558:	f421 3080 	bic.w	r0, r1, #65536	; 0x10000
 800255c:	f5b0 2f80 	cmp.w	r0, #262144	; 0x40000
 8002560:	d08a      	beq.n	8002478 <HAL_RCCEx_PeriphCLKConfig+0x1a0>
 8002562:	f5b1 3f40 	cmp.w	r1, #196608	; 0x30000
 8002566:	d087      	beq.n	8002478 <HAL_RCCEx_PeriphCLKConfig+0x1a0>
 8002568:	2601      	movs	r6, #1
 800256a:	4635      	mov	r5, r6
 800256c:	e78e      	b.n	800248c <HAL_RCCEx_PeriphCLKConfig+0x1b4>
 800256e:	f1b1 4fa0 	cmp.w	r1, #1342177280	; 0x50000000
 8002572:	d0a0      	beq.n	80024b6 <HAL_RCCEx_PeriphCLKConfig+0x1de>
 8002574:	d905      	bls.n	8002582 <HAL_RCCEx_PeriphCLKConfig+0x2aa>
 8002576:	f1b1 4fc0 	cmp.w	r1, #1610612736	; 0x60000000
 800257a:	d09c      	beq.n	80024b6 <HAL_RCCEx_PeriphCLKConfig+0x1de>
 800257c:	2601      	movs	r6, #1
 800257e:	4635      	mov	r5, r6
 8002580:	e7a4      	b.n	80024cc <HAL_RCCEx_PeriphCLKConfig+0x1f4>
 8002582:	f1b1 5f40 	cmp.w	r1, #805306368	; 0x30000000
 8002586:	d096      	beq.n	80024b6 <HAL_RCCEx_PeriphCLKConfig+0x1de>
 8002588:	f1b1 4f80 	cmp.w	r1, #1073741824	; 0x40000000
 800258c:	d1f6      	bne.n	800257c <HAL_RCCEx_PeriphCLKConfig+0x2a4>
 800258e:	2d00      	cmp	r5, #0
 8002590:	f040 830f 	bne.w	8002bb2 <HAL_RCCEx_PeriphCLKConfig+0x8da>
 8002594:	e792      	b.n	80024bc <HAL_RCCEx_PeriphCLKConfig+0x1e4>
 8002596:	bf00      	nop
 8002598:	58024400 	.word	0x58024400
 800259c:	483a      	ldr	r0, [pc, #232]	; (8002688 <HAL_RCCEx_PeriphCLKConfig+0x3b0>)
 800259e:	6ac1      	ldr	r1, [r0, #44]	; 0x2c
 80025a0:	f441 3100 	orr.w	r1, r1, #131072	; 0x20000
 80025a4:	62c1      	str	r1, [r0, #44]	; 0x2c
 80025a6:	2d00      	cmp	r5, #0
 80025a8:	f040 8307 	bne.w	8002bba <HAL_RCCEx_PeriphCLKConfig+0x8e2>
 80025ac:	4f36      	ldr	r7, [pc, #216]	; (8002688 <HAL_RCCEx_PeriphCLKConfig+0x3b0>)
 80025ae:	6ca0      	ldr	r0, [r4, #72]	; 0x48
 80025b0:	6cf9      	ldr	r1, [r7, #76]	; 0x4c
 80025b2:	f021 0103 	bic.w	r1, r1, #3
 80025b6:	4301      	orrs	r1, r0
 80025b8:	64f9      	str	r1, [r7, #76]	; 0x4c
 80025ba:	0259      	lsls	r1, r3, #9
 80025bc:	f100 826b 	bmi.w	8002a96 <HAL_RCCEx_PeriphCLKConfig+0x7be>
 80025c0:	07d8      	lsls	r0, r3, #31
 80025c2:	d530      	bpl.n	8002626 <HAL_RCCEx_PeriphCLKConfig+0x34e>
 80025c4:	f8d4 1084 	ldr.w	r1, [r4, #132]	; 0x84
 80025c8:	2928      	cmp	r1, #40	; 0x28
 80025ca:	d82a      	bhi.n	8002622 <HAL_RCCEx_PeriphCLKConfig+0x34a>
 80025cc:	e8df f011 	tbh	[pc, r1, lsl #1]
 80025d0:	00290209 	.word	0x00290209
 80025d4:	00290029 	.word	0x00290029
 80025d8:	00290029 	.word	0x00290029
 80025dc:	00290029 	.word	0x00290029
 80025e0:	00290201 	.word	0x00290201
 80025e4:	00290029 	.word	0x00290029
 80025e8:	00290029 	.word	0x00290029
 80025ec:	00290029 	.word	0x00290029
 80025f0:	002903f9 	.word	0x002903f9
 80025f4:	00290029 	.word	0x00290029
 80025f8:	00290029 	.word	0x00290029
 80025fc:	00290029 	.word	0x00290029
 8002600:	00290209 	.word	0x00290209
 8002604:	00290029 	.word	0x00290029
 8002608:	00290029 	.word	0x00290029
 800260c:	00290029 	.word	0x00290029
 8002610:	00290209 	.word	0x00290209
 8002614:	00290029 	.word	0x00290029
 8002618:	00290029 	.word	0x00290029
 800261c:	00290029 	.word	0x00290029
 8002620:	0209      	.short	0x0209
 8002622:	2601      	movs	r6, #1
 8002624:	4635      	mov	r5, r6
 8002626:	0799      	lsls	r1, r3, #30
 8002628:	d51f      	bpl.n	800266a <HAL_RCCEx_PeriphCLKConfig+0x392>
 800262a:	f8d4 1080 	ldr.w	r1, [r4, #128]	; 0x80
 800262e:	2905      	cmp	r1, #5
 8002630:	f200 840f 	bhi.w	8002e52 <HAL_RCCEx_PeriphCLKConfig+0xb7a>
 8002634:	e8df f011 	tbh	[pc, r1, lsl #1]
 8002638:	0006000e 	.word	0x0006000e
 800263c:	000e03ad 	.word	0x000e03ad
 8002640:	000e000e 	.word	0x000e000e
 8002644:	2101      	movs	r1, #1
 8002646:	f104 0008 	add.w	r0, r4, #8
 800264a:	f7ff fd51 	bl	80020f0 <RCCEx_PLL2_Config>
 800264e:	4605      	mov	r5, r0
 8002650:	e9d4 3200 	ldrd	r3, r2, [r4]
 8002654:	2d00      	cmp	r5, #0
 8002656:	f040 82aa 	bne.w	8002bae <HAL_RCCEx_PeriphCLKConfig+0x8d6>
 800265a:	4f0b      	ldr	r7, [pc, #44]	; (8002688 <HAL_RCCEx_PeriphCLKConfig+0x3b0>)
 800265c:	f8d4 0080 	ldr.w	r0, [r4, #128]	; 0x80
 8002660:	6d79      	ldr	r1, [r7, #84]	; 0x54
 8002662:	f021 0107 	bic.w	r1, r1, #7
 8002666:	4301      	orrs	r1, r0
 8002668:	6579      	str	r1, [r7, #84]	; 0x54
 800266a:	075f      	lsls	r7, r3, #29
 800266c:	d521      	bpl.n	80026b2 <HAL_RCCEx_PeriphCLKConfig+0x3da>
 800266e:	f8d4 109c 	ldr.w	r1, [r4, #156]	; 0x9c
 8002672:	2905      	cmp	r1, #5
 8002674:	f200 83f0 	bhi.w	8002e58 <HAL_RCCEx_PeriphCLKConfig+0xb80>
 8002678:	e8df f011 	tbh	[pc, r1, lsl #1]
 800267c:	00080010 	.word	0x00080010
 8002680:	00100397 	.word	0x00100397
 8002684:	00100010 	.word	0x00100010
 8002688:	58024400 	.word	0x58024400
 800268c:	2101      	movs	r1, #1
 800268e:	f104 0008 	add.w	r0, r4, #8
 8002692:	f7ff fd2d 	bl	80020f0 <RCCEx_PLL2_Config>
 8002696:	4605      	mov	r5, r0
 8002698:	e9d4 3200 	ldrd	r3, r2, [r4]
 800269c:	2d00      	cmp	r5, #0
 800269e:	f040 8290 	bne.w	8002bc2 <HAL_RCCEx_PeriphCLKConfig+0x8ea>
 80026a2:	4fad      	ldr	r7, [pc, #692]	; (8002958 <HAL_RCCEx_PeriphCLKConfig+0x680>)
 80026a4:	f8d4 009c 	ldr.w	r0, [r4, #156]	; 0x9c
 80026a8:	6db9      	ldr	r1, [r7, #88]	; 0x58
 80026aa:	f021 0107 	bic.w	r1, r1, #7
 80026ae:	4301      	orrs	r1, r0
 80026b0:	65b9      	str	r1, [r7, #88]	; 0x58
 80026b2:	0698      	lsls	r0, r3, #26
 80026b4:	d51f      	bpl.n	80026f6 <HAL_RCCEx_PeriphCLKConfig+0x41e>
 80026b6:	f8d4 1098 	ldr.w	r1, [r4, #152]	; 0x98
 80026ba:	f1b1 5f00 	cmp.w	r1, #536870912	; 0x20000000
 80026be:	f000 82b5 	beq.w	8002c2c <HAL_RCCEx_PeriphCLKConfig+0x954>
 80026c2:	f200 810a 	bhi.w	80028da <HAL_RCCEx_PeriphCLKConfig+0x602>
 80026c6:	b159      	cbz	r1, 80026e0 <HAL_RCCEx_PeriphCLKConfig+0x408>
 80026c8:	f1b1 5f80 	cmp.w	r1, #268435456	; 0x10000000
 80026cc:	f040 810f 	bne.w	80028ee <HAL_RCCEx_PeriphCLKConfig+0x616>
 80026d0:	2100      	movs	r1, #0
 80026d2:	f104 0008 	add.w	r0, r4, #8
 80026d6:	f7ff fd0b 	bl	80020f0 <RCCEx_PLL2_Config>
 80026da:	4605      	mov	r5, r0
 80026dc:	e9d4 3200 	ldrd	r3, r2, [r4]
 80026e0:	2d00      	cmp	r5, #0
 80026e2:	f040 826c 	bne.w	8002bbe <HAL_RCCEx_PeriphCLKConfig+0x8e6>
 80026e6:	4f9c      	ldr	r7, [pc, #624]	; (8002958 <HAL_RCCEx_PeriphCLKConfig+0x680>)
 80026e8:	f8d4 0098 	ldr.w	r0, [r4, #152]	; 0x98
 80026ec:	6d79      	ldr	r1, [r7, #84]	; 0x54
 80026ee:	f021 41e0 	bic.w	r1, r1, #1879048192	; 0x70000000
 80026f2:	4301      	orrs	r1, r0
 80026f4:	6579      	str	r1, [r7, #84]	; 0x54
 80026f6:	0659      	lsls	r1, r3, #25
 80026f8:	d51f      	bpl.n	800273a <HAL_RCCEx_PeriphCLKConfig+0x462>
 80026fa:	f8d4 10a4 	ldr.w	r1, [r4, #164]	; 0xa4
 80026fe:	f5b1 6f00 	cmp.w	r1, #2048	; 0x800
 8002702:	f000 82d0 	beq.w	8002ca6 <HAL_RCCEx_PeriphCLKConfig+0x9ce>
 8002706:	f200 80f5 	bhi.w	80028f4 <HAL_RCCEx_PeriphCLKConfig+0x61c>
 800270a:	b159      	cbz	r1, 8002724 <HAL_RCCEx_PeriphCLKConfig+0x44c>
 800270c:	f5b1 6f80 	cmp.w	r1, #1024	; 0x400
 8002710:	f040 80fa 	bne.w	8002908 <HAL_RCCEx_PeriphCLKConfig+0x630>
 8002714:	2100      	movs	r1, #0
 8002716:	f104 0008 	add.w	r0, r4, #8
 800271a:	f7ff fce9 	bl	80020f0 <RCCEx_PLL2_Config>
 800271e:	4605      	mov	r5, r0
 8002720:	e9d4 3200 	ldrd	r3, r2, [r4]
 8002724:	2d00      	cmp	r5, #0
 8002726:	f040 823c 	bne.w	8002ba2 <HAL_RCCEx_PeriphCLKConfig+0x8ca>
 800272a:	4f8b      	ldr	r7, [pc, #556]	; (8002958 <HAL_RCCEx_PeriphCLKConfig+0x680>)
 800272c:	f8d4 00a4 	ldr.w	r0, [r4, #164]	; 0xa4
 8002730:	6db9      	ldr	r1, [r7, #88]	; 0x58
 8002732:	f421 51e0 	bic.w	r1, r1, #7168	; 0x1c00
 8002736:	4301      	orrs	r1, r0
 8002738:	65b9      	str	r1, [r7, #88]	; 0x58
 800273a:	061f      	lsls	r7, r3, #24
 800273c:	d51f      	bpl.n	800277e <HAL_RCCEx_PeriphCLKConfig+0x4a6>
 800273e:	f8d4 10a8 	ldr.w	r1, [r4, #168]	; 0xa8
 8002742:	f5b1 4f80 	cmp.w	r1, #16384	; 0x4000
 8002746:	f000 82ba 	beq.w	8002cbe <HAL_RCCEx_PeriphCLKConfig+0x9e6>
 800274a:	f200 80e0 	bhi.w	800290e <HAL_RCCEx_PeriphCLKConfig+0x636>
 800274e:	b159      	cbz	r1, 8002768 <HAL_RCCEx_PeriphCLKConfig+0x490>
 8002750:	f5b1 5f00 	cmp.w	r1, #8192	; 0x2000
 8002754:	f040 80e5 	bne.w	8002922 <HAL_RCCEx_PeriphCLKConfig+0x64a>
 8002758:	2100      	movs	r1, #0
 800275a:	f104 0008 	add.w	r0, r4, #8
 800275e:	f7ff fcc7 	bl	80020f0 <RCCEx_PLL2_Config>
 8002762:	4605      	mov	r5, r0
 8002764:	e9d4 3200 	ldrd	r3, r2, [r4]
 8002768:	2d00      	cmp	r5, #0
 800276a:	f040 8218 	bne.w	8002b9e <HAL_RCCEx_PeriphCLKConfig+0x8c6>
 800276e:	4f7a      	ldr	r7, [pc, #488]	; (8002958 <HAL_RCCEx_PeriphCLKConfig+0x680>)
 8002770:	f8d4 00a8 	ldr.w	r0, [r4, #168]	; 0xa8
 8002774:	6db9      	ldr	r1, [r7, #88]	; 0x58
 8002776:	f421 4160 	bic.w	r1, r1, #57344	; 0xe000
 800277a:	4301      	orrs	r1, r0
 800277c:	65b9      	str	r1, [r7, #88]	; 0x58
 800277e:	0718      	lsls	r0, r3, #28
 8002780:	d50b      	bpl.n	800279a <HAL_RCCEx_PeriphCLKConfig+0x4c2>
 8002782:	f8d4 008c 	ldr.w	r0, [r4, #140]	; 0x8c
 8002786:	f5b0 5f80 	cmp.w	r0, #4096	; 0x1000
 800278a:	f000 82a4 	beq.w	8002cd6 <HAL_RCCEx_PeriphCLKConfig+0x9fe>
 800278e:	4f72      	ldr	r7, [pc, #456]	; (8002958 <HAL_RCCEx_PeriphCLKConfig+0x680>)
 8002790:	6d79      	ldr	r1, [r7, #84]	; 0x54
 8002792:	f421 5140 	bic.w	r1, r1, #12288	; 0x3000
 8002796:	4301      	orrs	r1, r0
 8002798:	6579      	str	r1, [r7, #84]	; 0x54
 800279a:	06d9      	lsls	r1, r3, #27
 800279c:	d50b      	bpl.n	80027b6 <HAL_RCCEx_PeriphCLKConfig+0x4de>
 800279e:	f8d4 00a0 	ldr.w	r0, [r4, #160]	; 0xa0
 80027a2:	f5b0 7f80 	cmp.w	r0, #256	; 0x100
 80027a6:	f000 82a3 	beq.w	8002cf0 <HAL_RCCEx_PeriphCLKConfig+0xa18>
 80027aa:	4f6b      	ldr	r7, [pc, #428]	; (8002958 <HAL_RCCEx_PeriphCLKConfig+0x680>)
 80027ac:	6db9      	ldr	r1, [r7, #88]	; 0x58
 80027ae:	f421 7140 	bic.w	r1, r1, #768	; 0x300
 80027b2:	4301      	orrs	r1, r0
 80027b4:	65b9      	str	r1, [r7, #88]	; 0x58
 80027b6:	031f      	lsls	r7, r3, #12
 80027b8:	d50e      	bpl.n	80027d8 <HAL_RCCEx_PeriphCLKConfig+0x500>
 80027ba:	f8d4 10ac 	ldr.w	r1, [r4, #172]	; 0xac
 80027be:	f5b1 3f80 	cmp.w	r1, #65536	; 0x10000
 80027c2:	f000 80cb 	beq.w	800295c <HAL_RCCEx_PeriphCLKConfig+0x684>
 80027c6:	f5b1 3f00 	cmp.w	r1, #131072	; 0x20000
 80027ca:	f000 80cf 	beq.w	800296c <HAL_RCCEx_PeriphCLKConfig+0x694>
 80027ce:	2900      	cmp	r1, #0
 80027d0:	f000 8218 	beq.w	8002c04 <HAL_RCCEx_PeriphCLKConfig+0x92c>
 80027d4:	2601      	movs	r6, #1
 80027d6:	4635      	mov	r5, r6
 80027d8:	0358      	lsls	r0, r3, #13
 80027da:	d50f      	bpl.n	80027fc <HAL_RCCEx_PeriphCLKConfig+0x524>
 80027dc:	f8d4 1090 	ldr.w	r1, [r4, #144]	; 0x90
 80027e0:	f5b1 1f00 	cmp.w	r1, #2097152	; 0x200000
 80027e4:	f000 80ce 	beq.w	8002984 <HAL_RCCEx_PeriphCLKConfig+0x6ac>
 80027e8:	f5b1 1f40 	cmp.w	r1, #3145728	; 0x300000
 80027ec:	f000 80d2 	beq.w	8002994 <HAL_RCCEx_PeriphCLKConfig+0x6bc>
 80027f0:	f5b1 1f80 	cmp.w	r1, #1048576	; 0x100000
 80027f4:	f000 81fe 	beq.w	8002bf4 <HAL_RCCEx_PeriphCLKConfig+0x91c>
 80027f8:	2601      	movs	r6, #1
 80027fa:	4635      	mov	r5, r6
 80027fc:	03d9      	lsls	r1, r3, #15
 80027fe:	d509      	bpl.n	8002814 <HAL_RCCEx_PeriphCLKConfig+0x53c>
 8002800:	6d21      	ldr	r1, [r4, #80]	; 0x50
 8002802:	2900      	cmp	r1, #0
 8002804:	f000 81ed 	beq.w	8002be2 <HAL_RCCEx_PeriphCLKConfig+0x90a>
 8002808:	f5b1 3f80 	cmp.w	r1, #65536	; 0x10000
 800280c:	f000 8199 	beq.w	8002b42 <HAL_RCCEx_PeriphCLKConfig+0x86a>
 8002810:	2601      	movs	r6, #1
 8002812:	4635      	mov	r5, r6
 8002814:	009f      	lsls	r7, r3, #2
 8002816:	f100 8132 	bmi.w	8002a7e <HAL_RCCEx_PeriphCLKConfig+0x7a6>
 800281a:	0398      	lsls	r0, r3, #14
 800281c:	d50c      	bpl.n	8002838 <HAL_RCCEx_PeriphCLKConfig+0x560>
 800281e:	f8d4 1088 	ldr.w	r1, [r4, #136]	; 0x88
 8002822:	f5b1 7f80 	cmp.w	r1, #256	; 0x100
 8002826:	f000 81d4 	beq.w	8002bd2 <HAL_RCCEx_PeriphCLKConfig+0x8fa>
 800282a:	d97d      	bls.n	8002928 <HAL_RCCEx_PeriphCLKConfig+0x650>
 800282c:	f421 7080 	bic.w	r0, r1, #256	; 0x100
 8002830:	f5b0 7f00 	cmp.w	r0, #512	; 0x200
 8002834:	d07a      	beq.n	800292c <HAL_RCCEx_PeriphCLKConfig+0x654>
 8002836:	2601      	movs	r6, #1
 8002838:	02d9      	lsls	r1, r3, #11
 800283a:	d506      	bpl.n	800284a <HAL_RCCEx_PeriphCLKConfig+0x572>
 800283c:	4846      	ldr	r0, [pc, #280]	; (8002958 <HAL_RCCEx_PeriphCLKConfig+0x680>)
 800283e:	6fe5      	ldr	r5, [r4, #124]	; 0x7c
 8002840:	6d01      	ldr	r1, [r0, #80]	; 0x50
 8002842:	f021 4100 	bic.w	r1, r1, #2147483648	; 0x80000000
 8002846:	4329      	orrs	r1, r5
 8002848:	6501      	str	r1, [r0, #80]	; 0x50
 800284a:	029f      	lsls	r7, r3, #10
 800284c:	d506      	bpl.n	800285c <HAL_RCCEx_PeriphCLKConfig+0x584>
 800284e:	4842      	ldr	r0, [pc, #264]	; (8002958 <HAL_RCCEx_PeriphCLKConfig+0x680>)
 8002850:	6f25      	ldr	r5, [r4, #112]	; 0x70
 8002852:	6d01      	ldr	r1, [r0, #80]	; 0x50
 8002854:	f021 7180 	bic.w	r1, r1, #16777216	; 0x1000000
 8002858:	4329      	orrs	r1, r5
 800285a:	6501      	str	r1, [r0, #80]	; 0x50
 800285c:	051d      	lsls	r5, r3, #20
 800285e:	d506      	bpl.n	800286e <HAL_RCCEx_PeriphCLKConfig+0x596>
 8002860:	483d      	ldr	r0, [pc, #244]	; (8002958 <HAL_RCCEx_PeriphCLKConfig+0x680>)
 8002862:	6f65      	ldr	r5, [r4, #116]	; 0x74
 8002864:	6d81      	ldr	r1, [r0, #88]	; 0x58
 8002866:	f021 6100 	bic.w	r1, r1, #134217728	; 0x8000000
 800286a:	4329      	orrs	r1, r5
 800286c:	6581      	str	r1, [r0, #88]	; 0x58
 800286e:	0058      	lsls	r0, r3, #1
 8002870:	d509      	bpl.n	8002886 <HAL_RCCEx_PeriphCLKConfig+0x5ae>
 8002872:	4939      	ldr	r1, [pc, #228]	; (8002958 <HAL_RCCEx_PeriphCLKConfig+0x680>)
 8002874:	6908      	ldr	r0, [r1, #16]
 8002876:	f420 4000 	bic.w	r0, r0, #32768	; 0x8000
 800287a:	6108      	str	r0, [r1, #16]
 800287c:	6908      	ldr	r0, [r1, #16]
 800287e:	f8d4 50b8 	ldr.w	r5, [r4, #184]	; 0xb8
 8002882:	4328      	orrs	r0, r5
 8002884:	6108      	str	r0, [r1, #16]
 8002886:	2b00      	cmp	r3, #0
 8002888:	da06      	bge.n	8002898 <HAL_RCCEx_PeriphCLKConfig+0x5c0>
 800288a:	4833      	ldr	r0, [pc, #204]	; (8002958 <HAL_RCCEx_PeriphCLKConfig+0x680>)
 800288c:	6d65      	ldr	r5, [r4, #84]	; 0x54
 800288e:	6cc1      	ldr	r1, [r0, #76]	; 0x4c
 8002890:	f021 5140 	bic.w	r1, r1, #805306368	; 0x30000000
 8002894:	4329      	orrs	r1, r5
 8002896:	64c1      	str	r1, [r0, #76]	; 0x4c
 8002898:	0219      	lsls	r1, r3, #8
 800289a:	d507      	bpl.n	80028ac <HAL_RCCEx_PeriphCLKConfig+0x5d4>
 800289c:	492e      	ldr	r1, [pc, #184]	; (8002958 <HAL_RCCEx_PeriphCLKConfig+0x680>)
 800289e:	f8d4 0094 	ldr.w	r0, [r4, #148]	; 0x94
 80028a2:	6d4b      	ldr	r3, [r1, #84]	; 0x54
 80028a4:	f423 0340 	bic.w	r3, r3, #12582912	; 0xc00000
 80028a8:	4303      	orrs	r3, r0
 80028aa:	654b      	str	r3, [r1, #84]	; 0x54
 80028ac:	07d3      	lsls	r3, r2, #31
 80028ae:	f100 80a4 	bmi.w	80029fa <HAL_RCCEx_PeriphCLKConfig+0x722>
 80028b2:	0797      	lsls	r7, r2, #30
 80028b4:	f100 80ae 	bmi.w	8002a14 <HAL_RCCEx_PeriphCLKConfig+0x73c>
 80028b8:	0755      	lsls	r5, r2, #29
 80028ba:	f100 80b8 	bmi.w	8002a2e <HAL_RCCEx_PeriphCLKConfig+0x756>
 80028be:	0710      	lsls	r0, r2, #28
 80028c0:	f100 80c2 	bmi.w	8002a48 <HAL_RCCEx_PeriphCLKConfig+0x770>
 80028c4:	06d1      	lsls	r1, r2, #27
 80028c6:	f100 80cc 	bmi.w	8002a62 <HAL_RCCEx_PeriphCLKConfig+0x78a>
 80028ca:	0692      	lsls	r2, r2, #26
 80028cc:	f100 8125 	bmi.w	8002b1a <HAL_RCCEx_PeriphCLKConfig+0x842>
 80028d0:	1e30      	subs	r0, r6, #0
 80028d2:	bf18      	it	ne
 80028d4:	2001      	movne	r0, #1
 80028d6:	e8bd 83f8 	ldmia.w	sp!, {r3, r4, r5, r6, r7, r8, r9, pc}
 80028da:	f021 5080 	bic.w	r0, r1, #268435456	; 0x10000000
 80028de:	f1b0 4f80 	cmp.w	r0, #1073741824	; 0x40000000
 80028e2:	f43f aefd 	beq.w	80026e0 <HAL_RCCEx_PeriphCLKConfig+0x408>
 80028e6:	f1b1 5f40 	cmp.w	r1, #805306368	; 0x30000000
 80028ea:	f43f aef9 	beq.w	80026e0 <HAL_RCCEx_PeriphCLKConfig+0x408>
 80028ee:	2601      	movs	r6, #1
 80028f0:	4635      	mov	r5, r6
 80028f2:	e700      	b.n	80026f6 <HAL_RCCEx_PeriphCLKConfig+0x41e>
 80028f4:	f421 6080 	bic.w	r0, r1, #1024	; 0x400
 80028f8:	f5b0 5f80 	cmp.w	r0, #4096	; 0x1000
 80028fc:	f43f af12 	beq.w	8002724 <HAL_RCCEx_PeriphCLKConfig+0x44c>
 8002900:	f5b1 6f40 	cmp.w	r1, #3072	; 0xc00
 8002904:	f43f af0e 	beq.w	8002724 <HAL_RCCEx_PeriphCLKConfig+0x44c>
 8002908:	2601      	movs	r6, #1
 800290a:	4635      	mov	r5, r6
 800290c:	e715      	b.n	800273a <HAL_RCCEx_PeriphCLKConfig+0x462>
 800290e:	f421 5000 	bic.w	r0, r1, #8192	; 0x2000
 8002912:	f5b0 4f00 	cmp.w	r0, #32768	; 0x8000
 8002916:	f43f af27 	beq.w	8002768 <HAL_RCCEx_PeriphCLKConfig+0x490>
 800291a:	f5b1 4fc0 	cmp.w	r1, #24576	; 0x6000
 800291e:	f43f af23 	beq.w	8002768 <HAL_RCCEx_PeriphCLKConfig+0x490>
 8002922:	2601      	movs	r6, #1
 8002924:	4635      	mov	r5, r6
 8002926:	e72a      	b.n	800277e <HAL_RCCEx_PeriphCLKConfig+0x4a6>
 8002928:	2900      	cmp	r1, #0
 800292a:	d184      	bne.n	8002836 <HAL_RCCEx_PeriphCLKConfig+0x55e>
 800292c:	2d00      	cmp	r5, #0
 800292e:	f040 814e 	bne.w	8002bce <HAL_RCCEx_PeriphCLKConfig+0x8f6>
 8002932:	4d09      	ldr	r5, [pc, #36]	; (8002958 <HAL_RCCEx_PeriphCLKConfig+0x680>)
 8002934:	6d68      	ldr	r0, [r5, #84]	; 0x54
 8002936:	f420 7040 	bic.w	r0, r0, #768	; 0x300
 800293a:	4301      	orrs	r1, r0
 800293c:	6569      	str	r1, [r5, #84]	; 0x54
 800293e:	e77b      	b.n	8002838 <HAL_RCCEx_PeriphCLKConfig+0x560>
 8002940:	4635      	mov	r5, r6
 8002942:	2d00      	cmp	r5, #0
 8002944:	f040 80f9 	bne.w	8002b3a <HAL_RCCEx_PeriphCLKConfig+0x862>
 8002948:	4f03      	ldr	r7, [pc, #12]	; (8002958 <HAL_RCCEx_PeriphCLKConfig+0x680>)
 800294a:	6da0      	ldr	r0, [r4, #88]	; 0x58
 800294c:	6d39      	ldr	r1, [r7, #80]	; 0x50
 800294e:	f021 0107 	bic.w	r1, r1, #7
 8002952:	4301      	orrs	r1, r0
 8002954:	6539      	str	r1, [r7, #80]	; 0x50
 8002956:	e4fc      	b.n	8002352 <HAL_RCCEx_PeriphCLKConfig+0x7a>
 8002958:	58024400 	.word	0x58024400
 800295c:	2102      	movs	r1, #2
 800295e:	f104 0028 	add.w	r0, r4, #40	; 0x28
 8002962:	f7ff fc3f 	bl	80021e4 <RCCEx_PLL3_Config>
 8002966:	4605      	mov	r5, r0
 8002968:	e9d4 3200 	ldrd	r3, r2, [r4]
 800296c:	2d00      	cmp	r5, #0
 800296e:	f040 8114 	bne.w	8002b9a <HAL_RCCEx_PeriphCLKConfig+0x8c2>
 8002972:	4fb4      	ldr	r7, [pc, #720]	; (8002c44 <HAL_RCCEx_PeriphCLKConfig+0x96c>)
 8002974:	f8d4 00ac 	ldr.w	r0, [r4, #172]	; 0xac
 8002978:	6db9      	ldr	r1, [r7, #88]	; 0x58
 800297a:	f421 3140 	bic.w	r1, r1, #196608	; 0x30000
 800297e:	4301      	orrs	r1, r0
 8002980:	65b9      	str	r1, [r7, #88]	; 0x58
 8002982:	e729      	b.n	80027d8 <HAL_RCCEx_PeriphCLKConfig+0x500>
 8002984:	2101      	movs	r1, #1
 8002986:	f104 0028 	add.w	r0, r4, #40	; 0x28
 800298a:	f7ff fc2b 	bl	80021e4 <RCCEx_PLL3_Config>
 800298e:	4605      	mov	r5, r0
 8002990:	e9d4 3200 	ldrd	r3, r2, [r4]
 8002994:	2d00      	cmp	r5, #0
 8002996:	f040 8118 	bne.w	8002bca <HAL_RCCEx_PeriphCLKConfig+0x8f2>
 800299a:	4faa      	ldr	r7, [pc, #680]	; (8002c44 <HAL_RCCEx_PeriphCLKConfig+0x96c>)
 800299c:	f8d4 0090 	ldr.w	r0, [r4, #144]	; 0x90
 80029a0:	6d79      	ldr	r1, [r7, #84]	; 0x54
 80029a2:	f421 1140 	bic.w	r1, r1, #3145728	; 0x300000
 80029a6:	4301      	orrs	r1, r0
 80029a8:	6579      	str	r1, [r7, #84]	; 0x54
 80029aa:	e727      	b.n	80027fc <HAL_RCCEx_PeriphCLKConfig+0x524>
 80029ac:	2101      	movs	r1, #1
 80029ae:	f104 0008 	add.w	r0, r4, #8
 80029b2:	f7ff fb9d 	bl	80020f0 <RCCEx_PLL2_Config>
 80029b6:	4605      	mov	r5, r0
 80029b8:	e9d4 3200 	ldrd	r3, r2, [r4]
 80029bc:	2d00      	cmp	r5, #0
 80029be:	f040 8102 	bne.w	8002bc6 <HAL_RCCEx_PeriphCLKConfig+0x8ee>
 80029c2:	4fa0      	ldr	r7, [pc, #640]	; (8002c44 <HAL_RCCEx_PeriphCLKConfig+0x96c>)
 80029c4:	6fa0      	ldr	r0, [r4, #120]	; 0x78
 80029c6:	6d39      	ldr	r1, [r7, #80]	; 0x50
 80029c8:	f021 5140 	bic.w	r1, r1, #805306368	; 0x30000000
 80029cc:	4301      	orrs	r1, r0
 80029ce:	6539      	str	r1, [r7, #80]	; 0x50
 80029d0:	e58c      	b.n	80024ec <HAL_RCCEx_PeriphCLKConfig+0x214>
 80029d2:	2101      	movs	r1, #1
 80029d4:	f104 0008 	add.w	r0, r4, #8
 80029d8:	f7ff fb8a 	bl	80020f0 <RCCEx_PLL2_Config>
 80029dc:	4605      	mov	r5, r0
 80029de:	e9d4 3200 	ldrd	r3, r2, [r4]
 80029e2:	2d00      	cmp	r5, #0
 80029e4:	f040 80e1 	bne.w	8002baa <HAL_RCCEx_PeriphCLKConfig+0x8d2>
 80029e8:	4f96      	ldr	r7, [pc, #600]	; (8002c44 <HAL_RCCEx_PeriphCLKConfig+0x96c>)
 80029ea:	f8d4 0084 	ldr.w	r0, [r4, #132]	; 0x84
 80029ee:	6d79      	ldr	r1, [r7, #84]	; 0x54
 80029f0:	f021 0138 	bic.w	r1, r1, #56	; 0x38
 80029f4:	4301      	orrs	r1, r0
 80029f6:	6579      	str	r1, [r7, #84]	; 0x54
 80029f8:	e615      	b.n	8002626 <HAL_RCCEx_PeriphCLKConfig+0x34e>
 80029fa:	2100      	movs	r1, #0
 80029fc:	f104 0008 	add.w	r0, r4, #8
 8002a00:	f7ff fb76 	bl	80020f0 <RCCEx_PLL2_Config>
 8002a04:	6862      	ldr	r2, [r4, #4]
 8002a06:	2800      	cmp	r0, #0
 8002a08:	f43f af53 	beq.w	80028b2 <HAL_RCCEx_PeriphCLKConfig+0x5da>
 8002a0c:	0797      	lsls	r7, r2, #30
 8002a0e:	4606      	mov	r6, r0
 8002a10:	f57f af52 	bpl.w	80028b8 <HAL_RCCEx_PeriphCLKConfig+0x5e0>
 8002a14:	2101      	movs	r1, #1
 8002a16:	f104 0008 	add.w	r0, r4, #8
 8002a1a:	f7ff fb69 	bl	80020f0 <RCCEx_PLL2_Config>
 8002a1e:	6862      	ldr	r2, [r4, #4]
 8002a20:	2800      	cmp	r0, #0
 8002a22:	f43f af49 	beq.w	80028b8 <HAL_RCCEx_PeriphCLKConfig+0x5e0>
 8002a26:	0755      	lsls	r5, r2, #29
 8002a28:	4606      	mov	r6, r0
 8002a2a:	f57f af48 	bpl.w	80028be <HAL_RCCEx_PeriphCLKConfig+0x5e6>
 8002a2e:	2102      	movs	r1, #2
 8002a30:	f104 0008 	add.w	r0, r4, #8
 8002a34:	f7ff fb5c 	bl	80020f0 <RCCEx_PLL2_Config>
 8002a38:	6862      	ldr	r2, [r4, #4]
 8002a3a:	2800      	cmp	r0, #0
 8002a3c:	f43f af3f 	beq.w	80028be <HAL_RCCEx_PeriphCLKConfig+0x5e6>
 8002a40:	4606      	mov	r6, r0
 8002a42:	0710      	lsls	r0, r2, #28
 8002a44:	f57f af3e 	bpl.w	80028c4 <HAL_RCCEx_PeriphCLKConfig+0x5ec>
 8002a48:	2100      	movs	r1, #0
 8002a4a:	f104 0028 	add.w	r0, r4, #40	; 0x28
 8002a4e:	f7ff fbc9 	bl	80021e4 <RCCEx_PLL3_Config>
 8002a52:	6862      	ldr	r2, [r4, #4]
 8002a54:	2800      	cmp	r0, #0
 8002a56:	f43f af35 	beq.w	80028c4 <HAL_RCCEx_PeriphCLKConfig+0x5ec>
 8002a5a:	06d1      	lsls	r1, r2, #27
 8002a5c:	4606      	mov	r6, r0
 8002a5e:	f57f af34 	bpl.w	80028ca <HAL_RCCEx_PeriphCLKConfig+0x5f2>
 8002a62:	f104 0528 	add.w	r5, r4, #40	; 0x28
 8002a66:	2101      	movs	r1, #1
 8002a68:	4628      	mov	r0, r5
 8002a6a:	f7ff fbbb 	bl	80021e4 <RCCEx_PLL3_Config>
 8002a6e:	2800      	cmp	r0, #0
 8002a70:	f000 80d2 	beq.w	8002c18 <HAL_RCCEx_PeriphCLKConfig+0x940>
 8002a74:	6863      	ldr	r3, [r4, #4]
 8002a76:	069b      	lsls	r3, r3, #26
 8002a78:	d558      	bpl.n	8002b2c <HAL_RCCEx_PeriphCLKConfig+0x854>
 8002a7a:	4606      	mov	r6, r0
 8002a7c:	e04f      	b.n	8002b1e <HAL_RCCEx_PeriphCLKConfig+0x846>
 8002a7e:	2102      	movs	r1, #2
 8002a80:	f104 0028 	add.w	r0, r4, #40	; 0x28
 8002a84:	f7ff fbae 	bl	80021e4 <RCCEx_PLL3_Config>
 8002a88:	e9d4 3200 	ldrd	r3, r2, [r4]
 8002a8c:	2800      	cmp	r0, #0
 8002a8e:	f43f aec4 	beq.w	800281a <HAL_RCCEx_PeriphCLKConfig+0x542>
 8002a92:	2601      	movs	r6, #1
 8002a94:	e6c1      	b.n	800281a <HAL_RCCEx_PeriphCLKConfig+0x542>
 8002a96:	4f6c      	ldr	r7, [pc, #432]	; (8002c48 <HAL_RCCEx_PeriphCLKConfig+0x970>)
 8002a98:	683b      	ldr	r3, [r7, #0]
 8002a9a:	f443 7380 	orr.w	r3, r3, #256	; 0x100
 8002a9e:	603b      	str	r3, [r7, #0]
 8002aa0:	f7fe f8f6 	bl	8000c90 <HAL_GetTick>
 8002aa4:	4680      	mov	r8, r0
 8002aa6:	e006      	b.n	8002ab6 <HAL_RCCEx_PeriphCLKConfig+0x7de>
 8002aa8:	f7fe f8f2 	bl	8000c90 <HAL_GetTick>
 8002aac:	eba0 0008 	sub.w	r0, r0, r8
 8002ab0:	2864      	cmp	r0, #100	; 0x64
 8002ab2:	f200 8192 	bhi.w	8002dda <HAL_RCCEx_PeriphCLKConfig+0xb02>
 8002ab6:	683b      	ldr	r3, [r7, #0]
 8002ab8:	05da      	lsls	r2, r3, #23
 8002aba:	d5f5      	bpl.n	8002aa8 <HAL_RCCEx_PeriphCLKConfig+0x7d0>
 8002abc:	2d00      	cmp	r5, #0
 8002abe:	f040 81bc 	bne.w	8002e3a <HAL_RCCEx_PeriphCLKConfig+0xb62>
 8002ac2:	4a60      	ldr	r2, [pc, #384]	; (8002c44 <HAL_RCCEx_PeriphCLKConfig+0x96c>)
 8002ac4:	f8d4 30b4 	ldr.w	r3, [r4, #180]	; 0xb4
 8002ac8:	6f11      	ldr	r1, [r2, #112]	; 0x70
 8002aca:	4059      	eors	r1, r3
 8002acc:	f411 7f40 	tst.w	r1, #768	; 0x300
 8002ad0:	d00b      	beq.n	8002aea <HAL_RCCEx_PeriphCLKConfig+0x812>
 8002ad2:	6f11      	ldr	r1, [r2, #112]	; 0x70
 8002ad4:	6f10      	ldr	r0, [r2, #112]	; 0x70
 8002ad6:	f421 7140 	bic.w	r1, r1, #768	; 0x300
 8002ada:	f440 3080 	orr.w	r0, r0, #65536	; 0x10000
 8002ade:	6710      	str	r0, [r2, #112]	; 0x70
 8002ae0:	6f10      	ldr	r0, [r2, #112]	; 0x70
 8002ae2:	f420 3080 	bic.w	r0, r0, #65536	; 0x10000
 8002ae6:	6710      	str	r0, [r2, #112]	; 0x70
 8002ae8:	6711      	str	r1, [r2, #112]	; 0x70
 8002aea:	f5b3 7f80 	cmp.w	r3, #256	; 0x100
 8002aee:	f000 8186 	beq.w	8002dfe <HAL_RCCEx_PeriphCLKConfig+0xb26>
 8002af2:	f403 7240 	and.w	r2, r3, #768	; 0x300
 8002af6:	f5b2 7f40 	cmp.w	r2, #768	; 0x300
 8002afa:	f000 8194 	beq.w	8002e26 <HAL_RCCEx_PeriphCLKConfig+0xb4e>
 8002afe:	4951      	ldr	r1, [pc, #324]	; (8002c44 <HAL_RCCEx_PeriphCLKConfig+0x96c>)
 8002b00:	690a      	ldr	r2, [r1, #16]
 8002b02:	f422 527c 	bic.w	r2, r2, #16128	; 0x3f00
 8002b06:	610a      	str	r2, [r1, #16]
 8002b08:	484e      	ldr	r0, [pc, #312]	; (8002c44 <HAL_RCCEx_PeriphCLKConfig+0x96c>)
 8002b0a:	f3c3 010b 	ubfx	r1, r3, #0, #12
 8002b0e:	6f07      	ldr	r7, [r0, #112]	; 0x70
 8002b10:	4339      	orrs	r1, r7
 8002b12:	e9d4 3200 	ldrd	r3, r2, [r4]
 8002b16:	6701      	str	r1, [r0, #112]	; 0x70
 8002b18:	e552      	b.n	80025c0 <HAL_RCCEx_PeriphCLKConfig+0x2e8>
 8002b1a:	f104 0528 	add.w	r5, r4, #40	; 0x28
 8002b1e:	2102      	movs	r1, #2
 8002b20:	4628      	mov	r0, r5
 8002b22:	f7ff fb5f 	bl	80021e4 <RCCEx_PLL3_Config>
 8002b26:	2800      	cmp	r0, #0
 8002b28:	f43f aed2 	beq.w	80028d0 <HAL_RCCEx_PeriphCLKConfig+0x5f8>
 8002b2c:	2001      	movs	r0, #1
 8002b2e:	e8bd 83f8 	ldmia.w	sp!, {r3, r4, r5, r6, r7, r8, r9, pc}
 8002b32:	462e      	mov	r6, r5
 8002b34:	e42d      	b.n	8002392 <HAL_RCCEx_PeriphCLKConfig+0xba>
 8002b36:	462e      	mov	r6, r5
 8002b38:	e48a      	b.n	8002450 <HAL_RCCEx_PeriphCLKConfig+0x178>
 8002b3a:	462e      	mov	r6, r5
 8002b3c:	e409      	b.n	8002352 <HAL_RCCEx_PeriphCLKConfig+0x7a>
 8002b3e:	462e      	mov	r6, r5
 8002b40:	e449      	b.n	80023d6 <HAL_RCCEx_PeriphCLKConfig+0xfe>
 8002b42:	2102      	movs	r1, #2
 8002b44:	f104 0008 	add.w	r0, r4, #8
 8002b48:	f7ff fad2 	bl	80020f0 <RCCEx_PLL2_Config>
 8002b4c:	4605      	mov	r5, r0
 8002b4e:	e9d4 3200 	ldrd	r3, r2, [r4]
 8002b52:	2d00      	cmp	r5, #0
 8002b54:	d14c      	bne.n	8002bf0 <HAL_RCCEx_PeriphCLKConfig+0x918>
 8002b56:	4f3b      	ldr	r7, [pc, #236]	; (8002c44 <HAL_RCCEx_PeriphCLKConfig+0x96c>)
 8002b58:	6d20      	ldr	r0, [r4, #80]	; 0x50
 8002b5a:	6cf9      	ldr	r1, [r7, #76]	; 0x4c
 8002b5c:	f421 3180 	bic.w	r1, r1, #65536	; 0x10000
 8002b60:	4301      	orrs	r1, r0
 8002b62:	64f9      	str	r1, [r7, #76]	; 0x4c
 8002b64:	e656      	b.n	8002814 <HAL_RCCEx_PeriphCLKConfig+0x53c>
 8002b66:	4d37      	ldr	r5, [pc, #220]	; (8002c44 <HAL_RCCEx_PeriphCLKConfig+0x96c>)
 8002b68:	6ae8      	ldr	r0, [r5, #44]	; 0x2c
 8002b6a:	f440 3000 	orr.w	r0, r0, #131072	; 0x20000
 8002b6e:	62e8      	str	r0, [r5, #44]	; 0x2c
 8002b70:	f7ff bbd3 	b.w	800231a <HAL_RCCEx_PeriphCLKConfig+0x42>
 8002b74:	4833      	ldr	r0, [pc, #204]	; (8002c44 <HAL_RCCEx_PeriphCLKConfig+0x96c>)
 8002b76:	6ac1      	ldr	r1, [r0, #44]	; 0x2c
 8002b78:	f441 3100 	orr.w	r1, r1, #131072	; 0x20000
 8002b7c:	62c1      	str	r1, [r0, #44]	; 0x2c
 8002b7e:	e420      	b.n	80023c2 <HAL_RCCEx_PeriphCLKConfig+0xea>
 8002b80:	4830      	ldr	r0, [pc, #192]	; (8002c44 <HAL_RCCEx_PeriphCLKConfig+0x96c>)
 8002b82:	6ac1      	ldr	r1, [r0, #44]	; 0x2c
 8002b84:	f441 3100 	orr.w	r1, r1, #131072	; 0x20000
 8002b88:	62c1      	str	r1, [r0, #44]	; 0x2c
 8002b8a:	e457      	b.n	800243c <HAL_RCCEx_PeriphCLKConfig+0x164>
 8002b8c:	482d      	ldr	r0, [pc, #180]	; (8002c44 <HAL_RCCEx_PeriphCLKConfig+0x96c>)
 8002b8e:	6ac1      	ldr	r1, [r0, #44]	; 0x2c
 8002b90:	f441 3100 	orr.w	r1, r1, #131072	; 0x20000
 8002b94:	62c1      	str	r1, [r0, #44]	; 0x2c
 8002b96:	f7ff bbf2 	b.w	800237e <HAL_RCCEx_PeriphCLKConfig+0xa6>
 8002b9a:	462e      	mov	r6, r5
 8002b9c:	e61c      	b.n	80027d8 <HAL_RCCEx_PeriphCLKConfig+0x500>
 8002b9e:	462e      	mov	r6, r5
 8002ba0:	e5ed      	b.n	800277e <HAL_RCCEx_PeriphCLKConfig+0x4a6>
 8002ba2:	462e      	mov	r6, r5
 8002ba4:	e5c9      	b.n	800273a <HAL_RCCEx_PeriphCLKConfig+0x462>
 8002ba6:	462e      	mov	r6, r5
 8002ba8:	e430      	b.n	800240c <HAL_RCCEx_PeriphCLKConfig+0x134>
 8002baa:	462e      	mov	r6, r5
 8002bac:	e53b      	b.n	8002626 <HAL_RCCEx_PeriphCLKConfig+0x34e>
 8002bae:	462e      	mov	r6, r5
 8002bb0:	e55b      	b.n	800266a <HAL_RCCEx_PeriphCLKConfig+0x392>
 8002bb2:	462e      	mov	r6, r5
 8002bb4:	e48a      	b.n	80024cc <HAL_RCCEx_PeriphCLKConfig+0x1f4>
 8002bb6:	462e      	mov	r6, r5
 8002bb8:	e468      	b.n	800248c <HAL_RCCEx_PeriphCLKConfig+0x1b4>
 8002bba:	462e      	mov	r6, r5
 8002bbc:	e4fd      	b.n	80025ba <HAL_RCCEx_PeriphCLKConfig+0x2e2>
 8002bbe:	462e      	mov	r6, r5
 8002bc0:	e599      	b.n	80026f6 <HAL_RCCEx_PeriphCLKConfig+0x41e>
 8002bc2:	462e      	mov	r6, r5
 8002bc4:	e575      	b.n	80026b2 <HAL_RCCEx_PeriphCLKConfig+0x3da>
 8002bc6:	462e      	mov	r6, r5
 8002bc8:	e490      	b.n	80024ec <HAL_RCCEx_PeriphCLKConfig+0x214>
 8002bca:	462e      	mov	r6, r5
 8002bcc:	e616      	b.n	80027fc <HAL_RCCEx_PeriphCLKConfig+0x524>
 8002bce:	462e      	mov	r6, r5
 8002bd0:	e632      	b.n	8002838 <HAL_RCCEx_PeriphCLKConfig+0x560>
 8002bd2:	4f1c      	ldr	r7, [pc, #112]	; (8002c44 <HAL_RCCEx_PeriphCLKConfig+0x96c>)
 8002bd4:	6af8      	ldr	r0, [r7, #44]	; 0x2c
 8002bd6:	f440 3000 	orr.w	r0, r0, #131072	; 0x20000
 8002bda:	62f8      	str	r0, [r7, #44]	; 0x2c
 8002bdc:	2d00      	cmp	r5, #0
 8002bde:	d1f6      	bne.n	8002bce <HAL_RCCEx_PeriphCLKConfig+0x8f6>
 8002be0:	e6a7      	b.n	8002932 <HAL_RCCEx_PeriphCLKConfig+0x65a>
 8002be2:	4818      	ldr	r0, [pc, #96]	; (8002c44 <HAL_RCCEx_PeriphCLKConfig+0x96c>)
 8002be4:	6ac1      	ldr	r1, [r0, #44]	; 0x2c
 8002be6:	f441 3100 	orr.w	r1, r1, #131072	; 0x20000
 8002bea:	62c1      	str	r1, [r0, #44]	; 0x2c
 8002bec:	2d00      	cmp	r5, #0
 8002bee:	d0b2      	beq.n	8002b56 <HAL_RCCEx_PeriphCLKConfig+0x87e>
 8002bf0:	462e      	mov	r6, r5
 8002bf2:	e60f      	b.n	8002814 <HAL_RCCEx_PeriphCLKConfig+0x53c>
 8002bf4:	4813      	ldr	r0, [pc, #76]	; (8002c44 <HAL_RCCEx_PeriphCLKConfig+0x96c>)
 8002bf6:	6ac1      	ldr	r1, [r0, #44]	; 0x2c
 8002bf8:	f441 3100 	orr.w	r1, r1, #131072	; 0x20000
 8002bfc:	62c1      	str	r1, [r0, #44]	; 0x2c
 8002bfe:	2d00      	cmp	r5, #0
 8002c00:	d1e3      	bne.n	8002bca <HAL_RCCEx_PeriphCLKConfig+0x8f2>
 8002c02:	e6ca      	b.n	800299a <HAL_RCCEx_PeriphCLKConfig+0x6c2>
 8002c04:	f104 0008 	add.w	r0, r4, #8
 8002c08:	f7ff fa72 	bl	80020f0 <RCCEx_PLL2_Config>
 8002c0c:	4605      	mov	r5, r0
 8002c0e:	e9d4 3200 	ldrd	r3, r2, [r4]
 8002c12:	2d00      	cmp	r5, #0
 8002c14:	d1c1      	bne.n	8002b9a <HAL_RCCEx_PeriphCLKConfig+0x8c2>
 8002c16:	e6ac      	b.n	8002972 <HAL_RCCEx_PeriphCLKConfig+0x69a>
 8002c18:	6862      	ldr	r2, [r4, #4]
 8002c1a:	e656      	b.n	80028ca <HAL_RCCEx_PeriphCLKConfig+0x5f2>
 8002c1c:	4809      	ldr	r0, [pc, #36]	; (8002c44 <HAL_RCCEx_PeriphCLKConfig+0x96c>)
 8002c1e:	6ac1      	ldr	r1, [r0, #44]	; 0x2c
 8002c20:	f441 3100 	orr.w	r1, r1, #131072	; 0x20000
 8002c24:	62c1      	str	r1, [r0, #44]	; 0x2c
 8002c26:	2d00      	cmp	r5, #0
 8002c28:	d1cd      	bne.n	8002bc6 <HAL_RCCEx_PeriphCLKConfig+0x8ee>
 8002c2a:	e6ca      	b.n	80029c2 <HAL_RCCEx_PeriphCLKConfig+0x6ea>
 8002c2c:	2102      	movs	r1, #2
 8002c2e:	f104 0028 	add.w	r0, r4, #40	; 0x28
 8002c32:	f7ff fad7 	bl	80021e4 <RCCEx_PLL3_Config>
 8002c36:	4605      	mov	r5, r0
 8002c38:	e9d4 3200 	ldrd	r3, r2, [r4]
 8002c3c:	2d00      	cmp	r5, #0
 8002c3e:	d1be      	bne.n	8002bbe <HAL_RCCEx_PeriphCLKConfig+0x8e6>
 8002c40:	e551      	b.n	80026e6 <HAL_RCCEx_PeriphCLKConfig+0x40e>
 8002c42:	bf00      	nop
 8002c44:	58024400 	.word	0x58024400
 8002c48:	58024800 	.word	0x58024800
 8002c4c:	2101      	movs	r1, #1
 8002c4e:	f104 0028 	add.w	r0, r4, #40	; 0x28
 8002c52:	f7ff fac7 	bl	80021e4 <RCCEx_PLL3_Config>
 8002c56:	4605      	mov	r5, r0
 8002c58:	e9d4 3200 	ldrd	r3, r2, [r4]
 8002c5c:	2d00      	cmp	r5, #0
 8002c5e:	d1aa      	bne.n	8002bb6 <HAL_RCCEx_PeriphCLKConfig+0x8de>
 8002c60:	e40d      	b.n	800247e <HAL_RCCEx_PeriphCLKConfig+0x1a6>
 8002c62:	2101      	movs	r1, #1
 8002c64:	f104 0028 	add.w	r0, r4, #40	; 0x28
 8002c68:	f7ff fabc 	bl	80021e4 <RCCEx_PLL3_Config>
 8002c6c:	4605      	mov	r5, r0
 8002c6e:	e9d4 3200 	ldrd	r3, r2, [r4]
 8002c72:	2d00      	cmp	r5, #0
 8002c74:	d19d      	bne.n	8002bb2 <HAL_RCCEx_PeriphCLKConfig+0x8da>
 8002c76:	e421      	b.n	80024bc <HAL_RCCEx_PeriphCLKConfig+0x1e4>
 8002c78:	2102      	movs	r1, #2
 8002c7a:	f104 0008 	add.w	r0, r4, #8
 8002c7e:	f7ff fa37 	bl	80020f0 <RCCEx_PLL2_Config>
 8002c82:	4605      	mov	r5, r0
 8002c84:	e9d4 3200 	ldrd	r3, r2, [r4]
 8002c88:	2d00      	cmp	r5, #0
 8002c8a:	d196      	bne.n	8002bba <HAL_RCCEx_PeriphCLKConfig+0x8e2>
 8002c8c:	e48e      	b.n	80025ac <HAL_RCCEx_PeriphCLKConfig+0x2d4>
 8002c8e:	2102      	movs	r1, #2
 8002c90:	f104 0008 	add.w	r0, r4, #8
 8002c94:	f7ff fa2c 	bl	80020f0 <RCCEx_PLL2_Config>
 8002c98:	4605      	mov	r5, r0
 8002c9a:	e9d4 3200 	ldrd	r3, r2, [r4]
 8002c9e:	2d00      	cmp	r5, #0
 8002ca0:	d181      	bne.n	8002ba6 <HAL_RCCEx_PeriphCLKConfig+0x8ce>
 8002ca2:	f7ff bbac 	b.w	80023fe <HAL_RCCEx_PeriphCLKConfig+0x126>
 8002ca6:	2102      	movs	r1, #2
 8002ca8:	f104 0028 	add.w	r0, r4, #40	; 0x28
 8002cac:	f7ff fa9a 	bl	80021e4 <RCCEx_PLL3_Config>
 8002cb0:	4605      	mov	r5, r0
 8002cb2:	e9d4 3200 	ldrd	r3, r2, [r4]
 8002cb6:	2d00      	cmp	r5, #0
 8002cb8:	f47f af73 	bne.w	8002ba2 <HAL_RCCEx_PeriphCLKConfig+0x8ca>
 8002cbc:	e535      	b.n	800272a <HAL_RCCEx_PeriphCLKConfig+0x452>
 8002cbe:	2102      	movs	r1, #2
 8002cc0:	f104 0028 	add.w	r0, r4, #40	; 0x28
 8002cc4:	f7ff fa8e 	bl	80021e4 <RCCEx_PLL3_Config>
 8002cc8:	4605      	mov	r5, r0
 8002cca:	e9d4 3200 	ldrd	r3, r2, [r4]
 8002cce:	2d00      	cmp	r5, #0
 8002cd0:	f47f af65 	bne.w	8002b9e <HAL_RCCEx_PeriphCLKConfig+0x8c6>
 8002cd4:	e54b      	b.n	800276e <HAL_RCCEx_PeriphCLKConfig+0x496>
 8002cd6:	2102      	movs	r1, #2
 8002cd8:	f104 0028 	add.w	r0, r4, #40	; 0x28
 8002cdc:	f7ff fa82 	bl	80021e4 <RCCEx_PLL3_Config>
 8002ce0:	2800      	cmp	r0, #0
 8002ce2:	f040 8086 	bne.w	8002df2 <HAL_RCCEx_PeriphCLKConfig+0xb1a>
 8002ce6:	f8d4 008c 	ldr.w	r0, [r4, #140]	; 0x8c
 8002cea:	e9d4 3200 	ldrd	r3, r2, [r4]
 8002cee:	e54e      	b.n	800278e <HAL_RCCEx_PeriphCLKConfig+0x4b6>
 8002cf0:	2102      	movs	r1, #2
 8002cf2:	f104 0028 	add.w	r0, r4, #40	; 0x28
 8002cf6:	f7ff fa75 	bl	80021e4 <RCCEx_PLL3_Config>
 8002cfa:	2800      	cmp	r0, #0
 8002cfc:	d173      	bne.n	8002de6 <HAL_RCCEx_PeriphCLKConfig+0xb0e>
 8002cfe:	f8d4 00a0 	ldr.w	r0, [r4, #160]	; 0xa0
 8002d02:	e9d4 3200 	ldrd	r3, r2, [r4]
 8002d06:	e550      	b.n	80027aa <HAL_RCCEx_PeriphCLKConfig+0x4d2>
 8002d08:	2102      	movs	r1, #2
 8002d0a:	f104 0028 	add.w	r0, r4, #40	; 0x28
 8002d0e:	f7ff fa69 	bl	80021e4 <RCCEx_PLL3_Config>
 8002d12:	4606      	mov	r6, r0
 8002d14:	2e00      	cmp	r6, #0
 8002d16:	f43f aafd 	beq.w	8002314 <HAL_RCCEx_PeriphCLKConfig+0x3c>
 8002d1a:	e036      	b.n	8002d8a <HAL_RCCEx_PeriphCLKConfig+0xab2>
 8002d1c:	4850      	ldr	r0, [pc, #320]	; (8002e60 <HAL_RCCEx_PeriphCLKConfig+0xb88>)
 8002d1e:	4635      	mov	r5, r6
 8002d20:	6ac1      	ldr	r1, [r0, #44]	; 0x2c
 8002d22:	f441 3100 	orr.w	r1, r1, #131072	; 0x20000
 8002d26:	62c1      	str	r1, [r0, #44]	; 0x2c
 8002d28:	e60b      	b.n	8002942 <HAL_RCCEx_PeriphCLKConfig+0x66a>
 8002d2a:	2100      	movs	r1, #0
 8002d2c:	f104 0008 	add.w	r0, r4, #8
 8002d30:	f7ff f9de 	bl	80020f0 <RCCEx_PLL2_Config>
 8002d34:	4605      	mov	r5, r0
 8002d36:	e9d4 3200 	ldrd	r3, r2, [r4]
 8002d3a:	e602      	b.n	8002942 <HAL_RCCEx_PeriphCLKConfig+0x66a>
 8002d3c:	2100      	movs	r1, #0
 8002d3e:	f104 0028 	add.w	r0, r4, #40	; 0x28
 8002d42:	f7ff fa4f 	bl	80021e4 <RCCEx_PLL3_Config>
 8002d46:	4605      	mov	r5, r0
 8002d48:	e9d4 3200 	ldrd	r3, r2, [r4]
 8002d4c:	e5f9      	b.n	8002942 <HAL_RCCEx_PeriphCLKConfig+0x66a>
 8002d4e:	2100      	movs	r1, #0
 8002d50:	f104 0028 	add.w	r0, r4, #40	; 0x28
 8002d54:	f7ff fa46 	bl	80021e4 <RCCEx_PLL3_Config>
 8002d58:	4605      	mov	r5, r0
 8002d5a:	e9d4 3200 	ldrd	r3, r2, [r4]
 8002d5e:	f7ff bb6d 	b.w	800243c <HAL_RCCEx_PeriphCLKConfig+0x164>
 8002d62:	2100      	movs	r1, #0
 8002d64:	f104 0028 	add.w	r0, r4, #40	; 0x28
 8002d68:	f7ff fa3c 	bl	80021e4 <RCCEx_PLL3_Config>
 8002d6c:	4605      	mov	r5, r0
 8002d6e:	e9d4 3200 	ldrd	r3, r2, [r4]
 8002d72:	f7ff bb04 	b.w	800237e <HAL_RCCEx_PeriphCLKConfig+0xa6>
 8002d76:	2100      	movs	r1, #0
 8002d78:	f104 0028 	add.w	r0, r4, #40	; 0x28
 8002d7c:	f7ff fa32 	bl	80021e4 <RCCEx_PLL3_Config>
 8002d80:	4605      	mov	r5, r0
 8002d82:	e9d4 3200 	ldrd	r3, r2, [r4]
 8002d86:	f7ff bb1c 	b.w	80023c2 <HAL_RCCEx_PeriphCLKConfig+0xea>
 8002d8a:	e9d4 3200 	ldrd	r3, r2, [r4]
 8002d8e:	f7ff bacb 	b.w	8002328 <HAL_RCCEx_PeriphCLKConfig+0x50>
 8002d92:	2101      	movs	r1, #1
 8002d94:	f104 0028 	add.w	r0, r4, #40	; 0x28
 8002d98:	f7ff fa24 	bl	80021e4 <RCCEx_PLL3_Config>
 8002d9c:	4605      	mov	r5, r0
 8002d9e:	e9d4 3200 	ldrd	r3, r2, [r4]
 8002da2:	2d00      	cmp	r5, #0
 8002da4:	f47f af03 	bne.w	8002bae <HAL_RCCEx_PeriphCLKConfig+0x8d6>
 8002da8:	e457      	b.n	800265a <HAL_RCCEx_PeriphCLKConfig+0x382>
 8002daa:	2101      	movs	r1, #1
 8002dac:	f104 0028 	add.w	r0, r4, #40	; 0x28
 8002db0:	f7ff fa18 	bl	80021e4 <RCCEx_PLL3_Config>
 8002db4:	4605      	mov	r5, r0
 8002db6:	e9d4 3200 	ldrd	r3, r2, [r4]
 8002dba:	2d00      	cmp	r5, #0
 8002dbc:	f47f af01 	bne.w	8002bc2 <HAL_RCCEx_PeriphCLKConfig+0x8ea>
 8002dc0:	e46f      	b.n	80026a2 <HAL_RCCEx_PeriphCLKConfig+0x3ca>
 8002dc2:	2101      	movs	r1, #1
 8002dc4:	f104 0028 	add.w	r0, r4, #40	; 0x28
 8002dc8:	f7ff fa0c 	bl	80021e4 <RCCEx_PLL3_Config>
 8002dcc:	4605      	mov	r5, r0
 8002dce:	e9d4 3200 	ldrd	r3, r2, [r4]
 8002dd2:	2d00      	cmp	r5, #0
 8002dd4:	f47f aee9 	bne.w	8002baa <HAL_RCCEx_PeriphCLKConfig+0x8d2>
 8002dd8:	e606      	b.n	80029e8 <HAL_RCCEx_PeriphCLKConfig+0x710>
 8002dda:	2603      	movs	r6, #3
 8002ddc:	e9d4 3200 	ldrd	r3, r2, [r4]
 8002de0:	4635      	mov	r5, r6
 8002de2:	f7ff bbed 	b.w	80025c0 <HAL_RCCEx_PeriphCLKConfig+0x2e8>
 8002de6:	f8d4 00a0 	ldr.w	r0, [r4, #160]	; 0xa0
 8002dea:	2601      	movs	r6, #1
 8002dec:	e9d4 3200 	ldrd	r3, r2, [r4]
 8002df0:	e4db      	b.n	80027aa <HAL_RCCEx_PeriphCLKConfig+0x4d2>
 8002df2:	f8d4 008c 	ldr.w	r0, [r4, #140]	; 0x8c
 8002df6:	2601      	movs	r6, #1
 8002df8:	e9d4 3200 	ldrd	r3, r2, [r4]
 8002dfc:	e4c7      	b.n	800278e <HAL_RCCEx_PeriphCLKConfig+0x4b6>
 8002dfe:	f7fd ff47 	bl	8000c90 <HAL_GetTick>
 8002e02:	f8df 805c 	ldr.w	r8, [pc, #92]	; 8002e60 <HAL_RCCEx_PeriphCLKConfig+0xb88>
 8002e06:	4607      	mov	r7, r0
 8002e08:	f241 3988 	movw	r9, #5000	; 0x1388
 8002e0c:	e004      	b.n	8002e18 <HAL_RCCEx_PeriphCLKConfig+0xb40>
 8002e0e:	f7fd ff3f 	bl	8000c90 <HAL_GetTick>
 8002e12:	1bc0      	subs	r0, r0, r7
 8002e14:	4548      	cmp	r0, r9
 8002e16:	d8e0      	bhi.n	8002dda <HAL_RCCEx_PeriphCLKConfig+0xb02>
 8002e18:	f8d8 3070 	ldr.w	r3, [r8, #112]	; 0x70
 8002e1c:	079b      	lsls	r3, r3, #30
 8002e1e:	d5f6      	bpl.n	8002e0e <HAL_RCCEx_PeriphCLKConfig+0xb36>
 8002e20:	f8d4 30b4 	ldr.w	r3, [r4, #180]	; 0xb4
 8002e24:	e665      	b.n	8002af2 <HAL_RCCEx_PeriphCLKConfig+0x81a>
 8002e26:	480e      	ldr	r0, [pc, #56]	; (8002e60 <HAL_RCCEx_PeriphCLKConfig+0xb88>)
 8002e28:	4a0e      	ldr	r2, [pc, #56]	; (8002e64 <HAL_RCCEx_PeriphCLKConfig+0xb8c>)
 8002e2a:	6901      	ldr	r1, [r0, #16]
 8002e2c:	ea02 1213 	and.w	r2, r2, r3, lsr #4
 8002e30:	f421 517c 	bic.w	r1, r1, #16128	; 0x3f00
 8002e34:	430a      	orrs	r2, r1
 8002e36:	6102      	str	r2, [r0, #16]
 8002e38:	e666      	b.n	8002b08 <HAL_RCCEx_PeriphCLKConfig+0x830>
 8002e3a:	e9d4 3200 	ldrd	r3, r2, [r4]
 8002e3e:	462e      	mov	r6, r5
 8002e40:	f7ff bbbe 	b.w	80025c0 <HAL_RCCEx_PeriphCLKConfig+0x2e8>
 8002e44:	2601      	movs	r6, #1
 8002e46:	4635      	mov	r5, r6
 8002e48:	f7ff bbb7 	b.w	80025ba <HAL_RCCEx_PeriphCLKConfig+0x2e2>
 8002e4c:	2601      	movs	r6, #1
 8002e4e:	f7ff ba7f 	b.w	8002350 <HAL_RCCEx_PeriphCLKConfig+0x78>
 8002e52:	2601      	movs	r6, #1
 8002e54:	4635      	mov	r5, r6
 8002e56:	e408      	b.n	800266a <HAL_RCCEx_PeriphCLKConfig+0x392>
 8002e58:	2601      	movs	r6, #1
 8002e5a:	4635      	mov	r5, r6
 8002e5c:	e429      	b.n	80026b2 <HAL_RCCEx_PeriphCLKConfig+0x3da>
 8002e5e:	bf00      	nop
 8002e60:	58024400 	.word	0x58024400
 8002e64:	00ffffcf 	.word	0x00ffffcf

08002e68 <HAL_RCCEx_GetD3PCLK1Freq>:
 8002e68:	b508      	push	{r3, lr}
 8002e6a:	f7ff f871 	bl	8001f50 <HAL_RCC_GetHCLKFreq>
 8002e6e:	4b05      	ldr	r3, [pc, #20]	; (8002e84 <HAL_RCCEx_GetD3PCLK1Freq+0x1c>)
 8002e70:	4a05      	ldr	r2, [pc, #20]	; (8002e88 <HAL_RCCEx_GetD3PCLK1Freq+0x20>)
 8002e72:	6a1b      	ldr	r3, [r3, #32]
 8002e74:	f3c3 1302 	ubfx	r3, r3, #4, #3
 8002e78:	5cd3      	ldrb	r3, [r2, r3]
 8002e7a:	f003 031f 	and.w	r3, r3, #31
 8002e7e:	40d8      	lsrs	r0, r3
 8002e80:	bd08      	pop	{r3, pc}
 8002e82:	bf00      	nop
 8002e84:	58024400 	.word	0x58024400
 8002e88:	08005b60 	.word	0x08005b60

08002e8c <HAL_RCCEx_GetPLL2ClockFreq>:
 8002e8c:	4a4f      	ldr	r2, [pc, #316]	; (8002fcc <HAL_RCCEx_GetPLL2ClockFreq+0x140>)
 8002e8e:	b470      	push	{r4, r5, r6}
 8002e90:	6a91      	ldr	r1, [r2, #40]	; 0x28
 8002e92:	6a95      	ldr	r5, [r2, #40]	; 0x28
 8002e94:	6ad6      	ldr	r6, [r2, #44]	; 0x2c
 8002e96:	f415 3f7c 	tst.w	r5, #258048	; 0x3f000
 8002e9a:	f3c5 3305 	ubfx	r3, r5, #12, #6
 8002e9e:	6bd4      	ldr	r4, [r2, #60]	; 0x3c
 8002ea0:	d05d      	beq.n	8002f5e <HAL_RCCEx_GetPLL2ClockFreq+0xd2>
 8002ea2:	f3c4 04cc 	ubfx	r4, r4, #3, #13
 8002ea6:	f3c6 1600 	ubfx	r6, r6, #4, #1
 8002eaa:	f001 0103 	and.w	r1, r1, #3
 8002eae:	fb06 f404 	mul.w	r4, r6, r4
 8002eb2:	2901      	cmp	r1, #1
 8002eb4:	ee07 4a90 	vmov	s15, r4
 8002eb8:	eeb8 7ae7 	vcvt.f32.s32	s14, s15
 8002ebc:	d003      	beq.n	8002ec6 <HAL_RCCEx_GetPLL2ClockFreq+0x3a>
 8002ebe:	2902      	cmp	r1, #2
 8002ec0:	d076      	beq.n	8002fb0 <HAL_RCCEx_GetPLL2ClockFreq+0x124>
 8002ec2:	2900      	cmp	r1, #0
 8002ec4:	d050      	beq.n	8002f68 <HAL_RCCEx_GetPLL2ClockFreq+0xdc>
 8002ec6:	ee07 3a90 	vmov	s15, r3
 8002eca:	ed9f 5a41 	vldr	s10, [pc, #260]	; 8002fd0 <HAL_RCCEx_GetPLL2ClockFreq+0x144>
 8002ece:	eef8 7ae7 	vcvt.f32.s32	s15, s15
 8002ed2:	6b93      	ldr	r3, [r2, #56]	; 0x38
 8002ed4:	eec5 6a27 	vdiv.f32	s13, s10, s15
 8002ed8:	eddf 5a3e 	vldr	s11, [pc, #248]	; 8002fd4 <HAL_RCCEx_GetPLL2ClockFreq+0x148>
 8002edc:	f3c3 0308 	ubfx	r3, r3, #0, #9
 8002ee0:	ee07 3a90 	vmov	s15, r3
 8002ee4:	eeb7 6a00 	vmov.f32	s12, #112	; 0x3f800000  1.0
 8002ee8:	eef8 7ae7 	vcvt.f32.s32	s15, s15
 8002eec:	eee7 7a25 	vfma.f32	s15, s14, s11
 8002ef0:	ee77 7a86 	vadd.f32	s15, s15, s12
 8002ef4:	ee66 6aa7 	vmul.f32	s13, s13, s15
 8002ef8:	4a34      	ldr	r2, [pc, #208]	; (8002fcc <HAL_RCCEx_GetPLL2ClockFreq+0x140>)
 8002efa:	eeb7 6a00 	vmov.f32	s12, #112	; 0x3f800000  1.0
 8002efe:	6b93      	ldr	r3, [r2, #56]	; 0x38
 8002f00:	f3c3 2346 	ubfx	r3, r3, #9, #7
 8002f04:	ee07 3a90 	vmov	s15, r3
 8002f08:	eef8 7ae7 	vcvt.f32.s32	s15, s15
 8002f0c:	bc70      	pop	{r4, r5, r6}
 8002f0e:	ee77 7a86 	vadd.f32	s15, s15, s12
 8002f12:	ee86 7aa7 	vdiv.f32	s14, s13, s15
 8002f16:	eebc 7ac7 	vcvt.u32.f32	s14, s14
 8002f1a:	ed80 7a00 	vstr	s14, [r0]
 8002f1e:	6b93      	ldr	r3, [r2, #56]	; 0x38
 8002f20:	f3c3 4306 	ubfx	r3, r3, #16, #7
 8002f24:	ee07 3a90 	vmov	s15, r3
 8002f28:	eef8 7ae7 	vcvt.f32.s32	s15, s15
 8002f2c:	ee77 7a86 	vadd.f32	s15, s15, s12
 8002f30:	ee86 7aa7 	vdiv.f32	s14, s13, s15
 8002f34:	eebc 7ac7 	vcvt.u32.f32	s14, s14
 8002f38:	ed80 7a01 	vstr	s14, [r0, #4]
 8002f3c:	6b93      	ldr	r3, [r2, #56]	; 0x38
 8002f3e:	f3c3 6306 	ubfx	r3, r3, #24, #7
 8002f42:	ee07 3a10 	vmov	s14, r3
 8002f46:	eeb8 7ac7 	vcvt.f32.s32	s14, s14
 8002f4a:	ee37 7a06 	vadd.f32	s14, s14, s12
 8002f4e:	eec6 7a87 	vdiv.f32	s15, s13, s14
 8002f52:	eefc 7ae7 	vcvt.u32.f32	s15, s15
 8002f56:	ee17 3a90 	vmov	r3, s15
 8002f5a:	6083      	str	r3, [r0, #8]
 8002f5c:	4770      	bx	lr
 8002f5e:	bc70      	pop	{r4, r5, r6}
 8002f60:	e9c0 3300 	strd	r3, r3, [r0]
 8002f64:	6083      	str	r3, [r0, #8]
 8002f66:	4770      	bx	lr
 8002f68:	6811      	ldr	r1, [r2, #0]
 8002f6a:	0689      	lsls	r1, r1, #26
 8002f6c:	d527      	bpl.n	8002fbe <HAL_RCCEx_GetPLL2ClockFreq+0x132>
 8002f6e:	6814      	ldr	r4, [r2, #0]
 8002f70:	ee07 3a90 	vmov	s15, r3
 8002f74:	4918      	ldr	r1, [pc, #96]	; (8002fd8 <HAL_RCCEx_GetPLL2ClockFreq+0x14c>)
 8002f76:	eef7 5a00 	vmov.f32	s11, #112	; 0x3f800000  1.0
 8002f7a:	6b93      	ldr	r3, [r2, #56]	; 0x38
 8002f7c:	f3c4 02c1 	ubfx	r2, r4, #3, #2
 8002f80:	eef8 7ae7 	vcvt.f32.s32	s15, s15
 8002f84:	ed9f 5a13 	vldr	s10, [pc, #76]	; 8002fd4 <HAL_RCCEx_GetPLL2ClockFreq+0x148>
 8002f88:	f3c3 0308 	ubfx	r3, r3, #0, #9
 8002f8c:	40d1      	lsrs	r1, r2
 8002f8e:	ee06 3a90 	vmov	s13, r3
 8002f92:	ee06 1a10 	vmov	s12, r1
 8002f96:	eef8 6ae6 	vcvt.f32.s32	s13, s13
 8002f9a:	eeb8 6ac6 	vcvt.f32.s32	s12, s12
 8002f9e:	eee7 6a05 	vfma.f32	s13, s14, s10
 8002fa2:	ee86 7a27 	vdiv.f32	s14, s12, s15
 8002fa6:	ee76 6aa5 	vadd.f32	s13, s13, s11
 8002faa:	ee66 6a87 	vmul.f32	s13, s13, s14
 8002fae:	e7a3      	b.n	8002ef8 <HAL_RCCEx_GetPLL2ClockFreq+0x6c>
 8002fb0:	ee07 3a90 	vmov	s15, r3
 8002fb4:	ed9f 5a09 	vldr	s10, [pc, #36]	; 8002fdc <HAL_RCCEx_GetPLL2ClockFreq+0x150>
 8002fb8:	eef8 7ae7 	vcvt.f32.s32	s15, s15
 8002fbc:	e789      	b.n	8002ed2 <HAL_RCCEx_GetPLL2ClockFreq+0x46>
 8002fbe:	ee07 3a90 	vmov	s15, r3
 8002fc2:	ed9f 5a07 	vldr	s10, [pc, #28]	; 8002fe0 <HAL_RCCEx_GetPLL2ClockFreq+0x154>
 8002fc6:	eef8 7ae7 	vcvt.f32.s32	s15, s15
 8002fca:	e782      	b.n	8002ed2 <HAL_RCCEx_GetPLL2ClockFreq+0x46>
 8002fcc:	58024400 	.word	0x58024400
 8002fd0:	4a742400 	.word	0x4a742400
 8002fd4:	39000000 	.word	0x39000000
 8002fd8:	03d09000 	.word	0x03d09000
 8002fdc:	4af42400 	.word	0x4af42400
 8002fe0:	4c742400 	.word	0x4c742400

08002fe4 <HAL_RCCEx_GetPLL3ClockFreq>:
 8002fe4:	4a4f      	ldr	r2, [pc, #316]	; (8003124 <HAL_RCCEx_GetPLL3ClockFreq+0x140>)
 8002fe6:	b470      	push	{r4, r5, r6}
 8002fe8:	6a91      	ldr	r1, [r2, #40]	; 0x28
 8002fea:	6a95      	ldr	r5, [r2, #40]	; 0x28
 8002fec:	6ad6      	ldr	r6, [r2, #44]	; 0x2c
 8002fee:	f015 7f7c 	tst.w	r5, #66060288	; 0x3f00000
 8002ff2:	f3c5 5305 	ubfx	r3, r5, #20, #6
 8002ff6:	6c54      	ldr	r4, [r2, #68]	; 0x44
 8002ff8:	d05d      	beq.n	80030b6 <HAL_RCCEx_GetPLL3ClockFreq+0xd2>
 8002ffa:	f3c4 04cc 	ubfx	r4, r4, #3, #13
 8002ffe:	f3c6 2600 	ubfx	r6, r6, #8, #1
 8003002:	f001 0103 	and.w	r1, r1, #3
 8003006:	fb06 f404 	mul.w	r4, r6, r4
 800300a:	2901      	cmp	r1, #1
 800300c:	ee07 4a90 	vmov	s15, r4
 8003010:	eeb8 7ae7 	vcvt.f32.s32	s14, s15
 8003014:	d003      	beq.n	800301e <HAL_RCCEx_GetPLL3ClockFreq+0x3a>
 8003016:	2902      	cmp	r1, #2
 8003018:	d076      	beq.n	8003108 <HAL_RCCEx_GetPLL3ClockFreq+0x124>
 800301a:	2900      	cmp	r1, #0
 800301c:	d050      	beq.n	80030c0 <HAL_RCCEx_GetPLL3ClockFreq+0xdc>
 800301e:	ee07 3a90 	vmov	s15, r3
 8003022:	ed9f 5a41 	vldr	s10, [pc, #260]	; 8003128 <HAL_RCCEx_GetPLL3ClockFreq+0x144>
 8003026:	eef8 7ae7 	vcvt.f32.s32	s15, s15
 800302a:	6c13      	ldr	r3, [r2, #64]	; 0x40
 800302c:	eec5 6a27 	vdiv.f32	s13, s10, s15
 8003030:	eddf 5a3e 	vldr	s11, [pc, #248]	; 800312c <HAL_RCCEx_GetPLL3ClockFreq+0x148>
 8003034:	f3c3 0308 	ubfx	r3, r3, #0, #9
 8003038:	ee07 3a90 	vmov	s15, r3
 800303c:	eeb7 6a00 	vmov.f32	s12, #112	; 0x3f800000  1.0
 8003040:	eef8 7ae7 	vcvt.f32.s32	s15, s15
 8003044:	eee7 7a25 	vfma.f32	s15, s14, s11
 8003048:	ee77 7a86 	vadd.f32	s15, s15, s12
 800304c:	ee66 6aa7 	vmul.f32	s13, s13, s15
 8003050:	4a34      	ldr	r2, [pc, #208]	; (8003124 <HAL_RCCEx_GetPLL3ClockFreq+0x140>)
 8003052:	eeb7 6a00 	vmov.f32	s12, #112	; 0x3f800000  1.0
 8003056:	6c13      	ldr	r3, [r2, #64]	; 0x40
 8003058:	f3c3 2346 	ubfx	r3, r3, #9, #7
 800305c:	ee07 3a90 	vmov	s15, r3
 8003060:	eef8 7ae7 	vcvt.f32.s32	s15, s15
 8003064:	bc70      	pop	{r4, r5, r6}
 8003066:	ee77 7a86 	vadd.f32	s15, s15, s12
 800306a:	ee86 7aa7 	vdiv.f32	s14, s13, s15
 800306e:	eebc 7ac7 	vcvt.u32.f32	s14, s14
 8003072:	ed80 7a00 	vstr	s14, [r0]
 8003076:	6c13      	ldr	r3, [r2, #64]	; 0x40
 8003078:	f3c3 4306 	ubfx	r3, r3, #16, #7
 800307c:	ee07 3a90 	vmov	s15, r3
 8003080:	eef8 7ae7 	vcvt.f32.s32	s15, s15
 8003084:	ee77 7a86 	vadd.f32	s15, s15, s12
 8003088:	ee86 7aa7 	vdiv.f32	s14, s13, s15
 800308c:	eebc 7ac7 	vcvt.u32.f32	s14, s14
 8003090:	ed80 7a01 	vstr	s14, [r0, #4]
 8003094:	6c13      	ldr	r3, [r2, #64]	; 0x40
 8003096:	f3c3 6306 	ubfx	r3, r3, #24, #7
 800309a:	ee07 3a10 	vmov	s14, r3
 800309e:	eeb8 7ac7 	vcvt.f32.s32	s14, s14
 80030a2:	ee37 7a06 	vadd.f32	s14, s14, s12
 80030a6:	eec6 7a87 	vdiv.f32	s15, s13, s14
 80030aa:	eefc 7ae7 	vcvt.u32.f32	s15, s15
 80030ae:	ee17 3a90 	vmov	r3, s15
 80030b2:	6083      	str	r3, [r0, #8]
 80030b4:	4770      	bx	lr
 80030b6:	bc70      	pop	{r4, r5, r6}
 80030b8:	e9c0 3300 	strd	r3, r3, [r0]
 80030bc:	6083      	str	r3, [r0, #8]
 80030be:	4770      	bx	lr
 80030c0:	6811      	ldr	r1, [r2, #0]
 80030c2:	0689      	lsls	r1, r1, #26
 80030c4:	d527      	bpl.n	8003116 <HAL_RCCEx_GetPLL3ClockFreq+0x132>
 80030c6:	6814      	ldr	r4, [r2, #0]
 80030c8:	ee07 3a90 	vmov	s15, r3
 80030cc:	4918      	ldr	r1, [pc, #96]	; (8003130 <HAL_RCCEx_GetPLL3ClockFreq+0x14c>)
 80030ce:	eef7 5a00 	vmov.f32	s11, #112	; 0x3f800000  1.0
 80030d2:	6c13      	ldr	r3, [r2, #64]	; 0x40
 80030d4:	f3c4 02c1 	ubfx	r2, r4, #3, #2
 80030d8:	eef8 7ae7 	vcvt.f32.s32	s15, s15
 80030dc:	ed9f 5a13 	vldr	s10, [pc, #76]	; 800312c <HAL_RCCEx_GetPLL3ClockFreq+0x148>
 80030e0:	f3c3 0308 	ubfx	r3, r3, #0, #9
 80030e4:	40d1      	lsrs	r1, r2
 80030e6:	ee06 3a90 	vmov	s13, r3
 80030ea:	ee06 1a10 	vmov	s12, r1
 80030ee:	eef8 6ae6 	vcvt.f32.s32	s13, s13
 80030f2:	eeb8 6ac6 	vcvt.f32.s32	s12, s12
 80030f6:	eee7 6a05 	vfma.f32	s13, s14, s10
 80030fa:	ee86 7a27 	vdiv.f32	s14, s12, s15
 80030fe:	ee76 6aa5 	vadd.f32	s13, s13, s11
 8003102:	ee66 6a87 	vmul.f32	s13, s13, s14
 8003106:	e7a3      	b.n	8003050 <HAL_RCCEx_GetPLL3ClockFreq+0x6c>
 8003108:	ee07 3a90 	vmov	s15, r3
 800310c:	ed9f 5a09 	vldr	s10, [pc, #36]	; 8003134 <HAL_RCCEx_GetPLL3ClockFreq+0x150>
 8003110:	eef8 7ae7 	vcvt.f32.s32	s15, s15
 8003114:	e789      	b.n	800302a <HAL_RCCEx_GetPLL3ClockFreq+0x46>
 8003116:	ee07 3a90 	vmov	s15, r3
 800311a:	ed9f 5a07 	vldr	s10, [pc, #28]	; 8003138 <HAL_RCCEx_GetPLL3ClockFreq+0x154>
 800311e:	eef8 7ae7 	vcvt.f32.s32	s15, s15
 8003122:	e782      	b.n	800302a <HAL_RCCEx_GetPLL3ClockFreq+0x46>
 8003124:	58024400 	.word	0x58024400
 8003128:	4a742400 	.word	0x4a742400
 800312c:	39000000 	.word	0x39000000
 8003130:	03d09000 	.word	0x03d09000
 8003134:	4af42400 	.word	0x4af42400
 8003138:	4c742400 	.word	0x4c742400

0800313c <HAL_UART_Receive_IT>:
 800313c:	f8d0 308c 	ldr.w	r3, [r0, #140]	; 0x8c
 8003140:	2b20      	cmp	r3, #32
 8003142:	d15e      	bne.n	8003202 <HAL_UART_Receive_IT+0xc6>
 8003144:	2900      	cmp	r1, #0
 8003146:	d061      	beq.n	800320c <HAL_UART_Receive_IT+0xd0>
 8003148:	b430      	push	{r4, r5}
 800314a:	fab2 f482 	clz	r4, r2
 800314e:	0964      	lsrs	r4, r4, #5
 8003150:	2a00      	cmp	r2, #0
 8003152:	d058      	beq.n	8003206 <HAL_UART_Receive_IT+0xca>
 8003154:	6803      	ldr	r3, [r0, #0]
 8003156:	66c4      	str	r4, [r0, #108]	; 0x6c
 8003158:	4c56      	ldr	r4, [pc, #344]	; (80032b4 <HAL_UART_Receive_IT+0x178>)
 800315a:	42a3      	cmp	r3, r4
 800315c:	d002      	beq.n	8003164 <HAL_UART_Receive_IT+0x28>
 800315e:	685c      	ldr	r4, [r3, #4]
 8003160:	0224      	lsls	r4, r4, #8
 8003162:	d43d      	bmi.n	80031e0 <HAL_UART_Receive_IT+0xa4>
 8003164:	6581      	str	r1, [r0, #88]	; 0x58
 8003166:	2400      	movs	r4, #0
 8003168:	6881      	ldr	r1, [r0, #8]
 800316a:	f8a0 205c 	strh.w	r2, [r0, #92]	; 0x5c
 800316e:	f5b1 5f80 	cmp.w	r1, #4096	; 0x1000
 8003172:	f8a0 205e 	strh.w	r2, [r0, #94]	; 0x5e
 8003176:	6744      	str	r4, [r0, #116]	; 0x74
 8003178:	d069      	beq.n	800324e <HAL_UART_Receive_IT+0x112>
 800317a:	2900      	cmp	r1, #0
 800317c:	d148      	bne.n	8003210 <HAL_UART_Receive_IT+0xd4>
 800317e:	6901      	ldr	r1, [r0, #16]
 8003180:	2900      	cmp	r1, #0
 8003182:	bf14      	ite	ne
 8003184:	247f      	movne	r4, #127	; 0x7f
 8003186:	24ff      	moveq	r4, #255	; 0xff
 8003188:	2100      	movs	r1, #0
 800318a:	f8a0 4060 	strh.w	r4, [r0, #96]	; 0x60
 800318e:	f8c0 1090 	str.w	r1, [r0, #144]	; 0x90
 8003192:	2122      	movs	r1, #34	; 0x22
 8003194:	f8c0 108c 	str.w	r1, [r0, #140]	; 0x8c
 8003198:	f103 0108 	add.w	r1, r3, #8
 800319c:	e851 1f00 	ldrex	r1, [r1]
 80031a0:	f041 0101 	orr.w	r1, r1, #1
 80031a4:	f103 0508 	add.w	r5, r3, #8
 80031a8:	e845 1400 	strex	r4, r1, [r5]
 80031ac:	2c00      	cmp	r4, #0
 80031ae:	d1f3      	bne.n	8003198 <HAL_UART_Receive_IT+0x5c>
 80031b0:	6e41      	ldr	r1, [r0, #100]	; 0x64
 80031b2:	f1b1 5f00 	cmp.w	r1, #536870912	; 0x20000000
 80031b6:	d051      	beq.n	800325c <HAL_UART_Receive_IT+0x120>
 80031b8:	6882      	ldr	r2, [r0, #8]
 80031ba:	f5b2 5f80 	cmp.w	r2, #4096	; 0x1000
 80031be:	d030      	beq.n	8003222 <HAL_UART_Receive_IT+0xe6>
 80031c0:	493d      	ldr	r1, [pc, #244]	; (80032b8 <HAL_UART_Receive_IT+0x17c>)
 80031c2:	6902      	ldr	r2, [r0, #16]
 80031c4:	6741      	str	r1, [r0, #116]	; 0x74
 80031c6:	2a00      	cmp	r2, #0
 80031c8:	d030      	beq.n	800322c <HAL_UART_Receive_IT+0xf0>
 80031ca:	e853 2f00 	ldrex	r2, [r3]
 80031ce:	f442 7290 	orr.w	r2, r2, #288	; 0x120
 80031d2:	e843 2100 	strex	r1, r2, [r3]
 80031d6:	2900      	cmp	r1, #0
 80031d8:	d1f7      	bne.n	80031ca <HAL_UART_Receive_IT+0x8e>
 80031da:	2000      	movs	r0, #0
 80031dc:	bc30      	pop	{r4, r5}
 80031de:	4770      	bx	lr
 80031e0:	e853 4f00 	ldrex	r4, [r3]
 80031e4:	f044 6480 	orr.w	r4, r4, #67108864	; 0x4000000
 80031e8:	e843 4500 	strex	r5, r4, [r3]
 80031ec:	2d00      	cmp	r5, #0
 80031ee:	d0b9      	beq.n	8003164 <HAL_UART_Receive_IT+0x28>
 80031f0:	e853 4f00 	ldrex	r4, [r3]
 80031f4:	f044 6480 	orr.w	r4, r4, #67108864	; 0x4000000
 80031f8:	e843 4500 	strex	r5, r4, [r3]
 80031fc:	2d00      	cmp	r5, #0
 80031fe:	d1ef      	bne.n	80031e0 <HAL_UART_Receive_IT+0xa4>
 8003200:	e7b0      	b.n	8003164 <HAL_UART_Receive_IT+0x28>
 8003202:	2002      	movs	r0, #2
 8003204:	4770      	bx	lr
 8003206:	2001      	movs	r0, #1
 8003208:	bc30      	pop	{r4, r5}
 800320a:	4770      	bx	lr
 800320c:	2001      	movs	r0, #1
 800320e:	4770      	bx	lr
 8003210:	f1b1 5f80 	cmp.w	r1, #268435456	; 0x10000000
 8003214:	d1b8      	bne.n	8003188 <HAL_UART_Receive_IT+0x4c>
 8003216:	6901      	ldr	r1, [r0, #16]
 8003218:	2900      	cmp	r1, #0
 800321a:	bf0c      	ite	eq
 800321c:	247f      	moveq	r4, #127	; 0x7f
 800321e:	243f      	movne	r4, #63	; 0x3f
 8003220:	e7b2      	b.n	8003188 <HAL_UART_Receive_IT+0x4c>
 8003222:	6902      	ldr	r2, [r0, #16]
 8003224:	2a00      	cmp	r2, #0
 8003226:	d13a      	bne.n	800329e <HAL_UART_Receive_IT+0x162>
 8003228:	4a24      	ldr	r2, [pc, #144]	; (80032bc <HAL_UART_Receive_IT+0x180>)
 800322a:	6742      	str	r2, [r0, #116]	; 0x74
 800322c:	e853 2f00 	ldrex	r2, [r3]
 8003230:	f042 0220 	orr.w	r2, r2, #32
 8003234:	e843 2100 	strex	r1, r2, [r3]
 8003238:	2900      	cmp	r1, #0
 800323a:	d0ce      	beq.n	80031da <HAL_UART_Receive_IT+0x9e>
 800323c:	e853 2f00 	ldrex	r2, [r3]
 8003240:	f042 0220 	orr.w	r2, r2, #32
 8003244:	e843 2100 	strex	r1, r2, [r3]
 8003248:	2900      	cmp	r1, #0
 800324a:	d1ef      	bne.n	800322c <HAL_UART_Receive_IT+0xf0>
 800324c:	e7c5      	b.n	80031da <HAL_UART_Receive_IT+0x9e>
 800324e:	6901      	ldr	r1, [r0, #16]
 8003250:	f240 14ff 	movw	r4, #511	; 0x1ff
 8003254:	2900      	cmp	r1, #0
 8003256:	bf18      	it	ne
 8003258:	24ff      	movne	r4, #255	; 0xff
 800325a:	e795      	b.n	8003188 <HAL_UART_Receive_IT+0x4c>
 800325c:	f8b0 1068 	ldrh.w	r1, [r0, #104]	; 0x68
 8003260:	4291      	cmp	r1, r2
 8003262:	d8a9      	bhi.n	80031b8 <HAL_UART_Receive_IT+0x7c>
 8003264:	6882      	ldr	r2, [r0, #8]
 8003266:	f5b2 5f80 	cmp.w	r2, #4096	; 0x1000
 800326a:	d01b      	beq.n	80032a4 <HAL_UART_Receive_IT+0x168>
 800326c:	4914      	ldr	r1, [pc, #80]	; (80032c0 <HAL_UART_Receive_IT+0x184>)
 800326e:	6902      	ldr	r2, [r0, #16]
 8003270:	6741      	str	r1, [r0, #116]	; 0x74
 8003272:	b13a      	cbz	r2, 8003284 <HAL_UART_Receive_IT+0x148>
 8003274:	e853 2f00 	ldrex	r2, [r3]
 8003278:	f442 7280 	orr.w	r2, r2, #256	; 0x100
 800327c:	e843 2100 	strex	r1, r2, [r3]
 8003280:	2900      	cmp	r1, #0
 8003282:	d1f7      	bne.n	8003274 <HAL_UART_Receive_IT+0x138>
 8003284:	f103 0208 	add.w	r2, r3, #8
 8003288:	e852 2f00 	ldrex	r2, [r2]
 800328c:	f042 5280 	orr.w	r2, r2, #268435456	; 0x10000000
 8003290:	f103 0008 	add.w	r0, r3, #8
 8003294:	e840 2100 	strex	r1, r2, [r0]
 8003298:	2900      	cmp	r1, #0
 800329a:	d1f3      	bne.n	8003284 <HAL_UART_Receive_IT+0x148>
 800329c:	e79d      	b.n	80031da <HAL_UART_Receive_IT+0x9e>
 800329e:	4a06      	ldr	r2, [pc, #24]	; (80032b8 <HAL_UART_Receive_IT+0x17c>)
 80032a0:	6742      	str	r2, [r0, #116]	; 0x74
 80032a2:	e792      	b.n	80031ca <HAL_UART_Receive_IT+0x8e>
 80032a4:	6902      	ldr	r2, [r0, #16]
 80032a6:	b912      	cbnz	r2, 80032ae <HAL_UART_Receive_IT+0x172>
 80032a8:	4a06      	ldr	r2, [pc, #24]	; (80032c4 <HAL_UART_Receive_IT+0x188>)
 80032aa:	6742      	str	r2, [r0, #116]	; 0x74
 80032ac:	e7ea      	b.n	8003284 <HAL_UART_Receive_IT+0x148>
 80032ae:	4a04      	ldr	r2, [pc, #16]	; (80032c0 <HAL_UART_Receive_IT+0x184>)
 80032b0:	6742      	str	r2, [r0, #116]	; 0x74
 80032b2:	e7df      	b.n	8003274 <HAL_UART_Receive_IT+0x138>
 80032b4:	58000c00 	.word	0x58000c00
 80032b8:	0800374d 	.word	0x0800374d
 80032bc:	08003701 	.word	0x08003701
 80032c0:	0800378d 	.word	0x0800378d
 80032c4:	0800397d 	.word	0x0800397d

080032c8 <HAL_UART_TxCpltCallback>:
 80032c8:	4770      	bx	lr
 80032ca:	bf00      	nop

080032cc <UART_DMAAbortOnError>:
 80032cc:	b508      	push	{r3, lr}
 80032ce:	6b80      	ldr	r0, [r0, #56]	; 0x38
 80032d0:	2300      	movs	r3, #0
 80032d2:	f8a0 305e 	strh.w	r3, [r0, #94]	; 0x5e
 80032d6:	f8a0 3056 	strh.w	r3, [r0, #86]	; 0x56
 80032da:	f7fd f9a3 	bl	8000624 <HAL_UART_ErrorCallback>
 80032de:	bd08      	pop	{r3, pc}

080032e0 <HAL_UARTEx_RxEventCallback>:
 80032e0:	4770      	bx	lr
 80032e2:	bf00      	nop

080032e4 <HAL_UART_IRQHandler>:
 80032e4:	6803      	ldr	r3, [r0, #0]
 80032e6:	f640 0c0f 	movw	ip, #2063	; 0x80f
 80032ea:	69da      	ldr	r2, [r3, #28]
 80032ec:	6819      	ldr	r1, [r3, #0]
 80032ee:	ea12 0f0c 	tst.w	r2, ip
 80032f2:	b570      	push	{r4, r5, r6, lr}
 80032f4:	4604      	mov	r4, r0
 80032f6:	689d      	ldr	r5, [r3, #8]
 80032f8:	f000 8122 	beq.w	8003540 <HAL_UART_IRQHandler+0x25c>
 80032fc:	48b1      	ldr	r0, [pc, #708]	; (80035c4 <HAL_UART_IRQHandler+0x2e0>)
 80032fe:	ea05 0c00 	and.w	ip, r5, r0
 8003302:	48b1      	ldr	r0, [pc, #708]	; (80035c8 <HAL_UART_IRQHandler+0x2e4>)
 8003304:	4008      	ands	r0, r1
 8003306:	ea50 000c 	orrs.w	r0, r0, ip
 800330a:	f040 8089 	bne.w	8003420 <HAL_UART_IRQHandler+0x13c>
 800330e:	6ee0      	ldr	r0, [r4, #108]	; 0x6c
 8003310:	2801      	cmp	r0, #1
 8003312:	d022      	beq.n	800335a <HAL_UART_IRQHandler+0x76>
 8003314:	02d6      	lsls	r6, r2, #11
 8003316:	d502      	bpl.n	800331e <HAL_UART_IRQHandler+0x3a>
 8003318:	0268      	lsls	r0, r5, #9
 800331a:	f100 813a 	bmi.w	8003592 <HAL_UART_IRQHandler+0x2ae>
 800331e:	0616      	lsls	r6, r2, #24
 8003320:	d506      	bpl.n	8003330 <HAL_UART_IRQHandler+0x4c>
 8003322:	f405 0500 	and.w	r5, r5, #8388608	; 0x800000
 8003326:	f001 0080 	and.w	r0, r1, #128	; 0x80
 800332a:	4328      	orrs	r0, r5
 800332c:	f040 8129 	bne.w	8003582 <HAL_UART_IRQHandler+0x29e>
 8003330:	0650      	lsls	r0, r2, #25
 8003332:	d567      	bpl.n	8003404 <HAL_UART_IRQHandler+0x120>
 8003334:	064e      	lsls	r6, r1, #25
 8003336:	d565      	bpl.n	8003404 <HAL_UART_IRQHandler+0x120>
 8003338:	e853 2f00 	ldrex	r2, [r3]
 800333c:	f022 0240 	bic.w	r2, r2, #64	; 0x40
 8003340:	e843 2100 	strex	r1, r2, [r3]
 8003344:	2900      	cmp	r1, #0
 8003346:	d1f7      	bne.n	8003338 <HAL_UART_IRQHandler+0x54>
 8003348:	2220      	movs	r2, #32
 800334a:	2300      	movs	r3, #0
 800334c:	4620      	mov	r0, r4
 800334e:	f8c4 2088 	str.w	r2, [r4, #136]	; 0x88
 8003352:	67a3      	str	r3, [r4, #120]	; 0x78
 8003354:	f7ff ffb8 	bl	80032c8 <HAL_UART_TxCpltCallback>
 8003358:	bd70      	pop	{r4, r5, r6, pc}
 800335a:	06d6      	lsls	r6, r2, #27
 800335c:	d5da      	bpl.n	8003314 <HAL_UART_IRQHandler+0x30>
 800335e:	06c8      	lsls	r0, r1, #27
 8003360:	d5d8      	bpl.n	8003314 <HAL_UART_IRQHandler+0x30>
 8003362:	2210      	movs	r2, #16
 8003364:	621a      	str	r2, [r3, #32]
 8003366:	689a      	ldr	r2, [r3, #8]
 8003368:	0652      	lsls	r2, r2, #25
 800336a:	f140 813c 	bpl.w	80035e6 <HAL_UART_IRQHandler+0x302>
 800336e:	f8d4 0080 	ldr.w	r0, [r4, #128]	; 0x80
 8003372:	6801      	ldr	r1, [r0, #0]
 8003374:	684a      	ldr	r2, [r1, #4]
 8003376:	b292      	uxth	r2, r2
 8003378:	2a00      	cmp	r2, #0
 800337a:	d0ed      	beq.n	8003358 <HAL_UART_IRQHandler+0x74>
 800337c:	f8b4 105c 	ldrh.w	r1, [r4, #92]	; 0x5c
 8003380:	4291      	cmp	r1, r2
 8003382:	d9e9      	bls.n	8003358 <HAL_UART_IRQHandler+0x74>
 8003384:	f8a4 205e 	strh.w	r2, [r4, #94]	; 0x5e
 8003388:	69c2      	ldr	r2, [r0, #28]
 800338a:	f5b2 7f80 	cmp.w	r2, #256	; 0x100
 800338e:	d02f      	beq.n	80033f0 <HAL_UART_IRQHandler+0x10c>
 8003390:	e853 2f00 	ldrex	r2, [r3]
 8003394:	f422 7280 	bic.w	r2, r2, #256	; 0x100
 8003398:	e843 2100 	strex	r1, r2, [r3]
 800339c:	2900      	cmp	r1, #0
 800339e:	d1f7      	bne.n	8003390 <HAL_UART_IRQHandler+0xac>
 80033a0:	f103 0208 	add.w	r2, r3, #8
 80033a4:	e852 2f00 	ldrex	r2, [r2]
 80033a8:	f022 0201 	bic.w	r2, r2, #1
 80033ac:	f103 0508 	add.w	r5, r3, #8
 80033b0:	e845 2100 	strex	r1, r2, [r5]
 80033b4:	2900      	cmp	r1, #0
 80033b6:	d1f3      	bne.n	80033a0 <HAL_UART_IRQHandler+0xbc>
 80033b8:	f103 0208 	add.w	r2, r3, #8
 80033bc:	e852 2f00 	ldrex	r2, [r2]
 80033c0:	f022 0240 	bic.w	r2, r2, #64	; 0x40
 80033c4:	f103 0508 	add.w	r5, r3, #8
 80033c8:	e845 2100 	strex	r1, r2, [r5]
 80033cc:	2900      	cmp	r1, #0
 80033ce:	d1f3      	bne.n	80033b8 <HAL_UART_IRQHandler+0xd4>
 80033d0:	2220      	movs	r2, #32
 80033d2:	f8c4 208c 	str.w	r2, [r4, #140]	; 0x8c
 80033d6:	66e1      	str	r1, [r4, #108]	; 0x6c
 80033d8:	e853 2f00 	ldrex	r2, [r3]
 80033dc:	f022 0210 	bic.w	r2, r2, #16
 80033e0:	e843 2100 	strex	r1, r2, [r3]
 80033e4:	2900      	cmp	r1, #0
 80033e6:	d1f7      	bne.n	80033d8 <HAL_UART_IRQHandler+0xf4>
 80033e8:	f7fd fccc 	bl	8000d84 <HAL_DMA_Abort>
 80033ec:	f8b4 105c 	ldrh.w	r1, [r4, #92]	; 0x5c
 80033f0:	2302      	movs	r3, #2
 80033f2:	4620      	mov	r0, r4
 80033f4:	6723      	str	r3, [r4, #112]	; 0x70
 80033f6:	f8b4 305e 	ldrh.w	r3, [r4, #94]	; 0x5e
 80033fa:	1ac9      	subs	r1, r1, r3
 80033fc:	b289      	uxth	r1, r1
 80033fe:	f7ff ff6f 	bl	80032e0 <HAL_UARTEx_RxEventCallback>
 8003402:	bd70      	pop	{r4, r5, r6, pc}
 8003404:	0215      	lsls	r5, r2, #8
 8003406:	d502      	bpl.n	800340e <HAL_UART_IRQHandler+0x12a>
 8003408:	0048      	lsls	r0, r1, #1
 800340a:	f100 80e7 	bmi.w	80035dc <HAL_UART_IRQHandler+0x2f8>
 800340e:	01d3      	lsls	r3, r2, #7
 8003410:	d5a2      	bpl.n	8003358 <HAL_UART_IRQHandler+0x74>
 8003412:	2900      	cmp	r1, #0
 8003414:	daa0      	bge.n	8003358 <HAL_UART_IRQHandler+0x74>
 8003416:	4620      	mov	r0, r4
 8003418:	e8bd 4070 	ldmia.w	sp!, {r4, r5, r6, lr}
 800341c:	f000 bff4 	b.w	8004408 <HAL_UARTEx_RxFifoFullCallback>
 8003420:	07d0      	lsls	r0, r2, #31
 8003422:	d509      	bpl.n	8003438 <HAL_UART_IRQHandler+0x154>
 8003424:	05ce      	lsls	r6, r1, #23
 8003426:	d507      	bpl.n	8003438 <HAL_UART_IRQHandler+0x154>
 8003428:	2001      	movs	r0, #1
 800342a:	6218      	str	r0, [r3, #32]
 800342c:	f8d4 0090 	ldr.w	r0, [r4, #144]	; 0x90
 8003430:	f040 0001 	orr.w	r0, r0, #1
 8003434:	f8c4 0090 	str.w	r0, [r4, #144]	; 0x90
 8003438:	0790      	lsls	r0, r2, #30
 800343a:	f140 8093 	bpl.w	8003564 <HAL_UART_IRQHandler+0x280>
 800343e:	07ee      	lsls	r6, r5, #31
 8003440:	d50a      	bpl.n	8003458 <HAL_UART_IRQHandler+0x174>
 8003442:	2002      	movs	r0, #2
 8003444:	6218      	str	r0, [r3, #32]
 8003446:	f8d4 0090 	ldr.w	r0, [r4, #144]	; 0x90
 800344a:	f040 0004 	orr.w	r0, r0, #4
 800344e:	f8c4 0090 	str.w	r0, [r4, #144]	; 0x90
 8003452:	0750      	lsls	r0, r2, #29
 8003454:	f100 808c 	bmi.w	8003570 <HAL_UART_IRQHandler+0x28c>
 8003458:	0716      	lsls	r6, r2, #28
 800345a:	d50c      	bpl.n	8003476 <HAL_UART_IRQHandler+0x192>
 800345c:	f001 0020 	and.w	r0, r1, #32
 8003460:	ea50 000c 	orrs.w	r0, r0, ip
 8003464:	d007      	beq.n	8003476 <HAL_UART_IRQHandler+0x192>
 8003466:	2008      	movs	r0, #8
 8003468:	6218      	str	r0, [r3, #32]
 800346a:	f8d4 0090 	ldr.w	r0, [r4, #144]	; 0x90
 800346e:	f040 0008 	orr.w	r0, r0, #8
 8003472:	f8c4 0090 	str.w	r0, [r4, #144]	; 0x90
 8003476:	0510      	lsls	r0, r2, #20
 8003478:	d50a      	bpl.n	8003490 <HAL_UART_IRQHandler+0x1ac>
 800347a:	014e      	lsls	r6, r1, #5
 800347c:	d508      	bpl.n	8003490 <HAL_UART_IRQHandler+0x1ac>
 800347e:	f44f 6000 	mov.w	r0, #2048	; 0x800
 8003482:	6218      	str	r0, [r3, #32]
 8003484:	f8d4 0090 	ldr.w	r0, [r4, #144]	; 0x90
 8003488:	f040 0020 	orr.w	r0, r0, #32
 800348c:	f8c4 0090 	str.w	r0, [r4, #144]	; 0x90
 8003490:	f8d4 0090 	ldr.w	r0, [r4, #144]	; 0x90
 8003494:	2800      	cmp	r0, #0
 8003496:	f43f af5f 	beq.w	8003358 <HAL_UART_IRQHandler+0x74>
 800349a:	0690      	lsls	r0, r2, #26
 800349c:	d50a      	bpl.n	80034b4 <HAL_UART_IRQHandler+0x1d0>
 800349e:	f001 0120 	and.w	r1, r1, #32
 80034a2:	f005 5580 	and.w	r5, r5, #268435456	; 0x10000000
 80034a6:	4329      	orrs	r1, r5
 80034a8:	d004      	beq.n	80034b4 <HAL_UART_IRQHandler+0x1d0>
 80034aa:	6f62      	ldr	r2, [r4, #116]	; 0x74
 80034ac:	b112      	cbz	r2, 80034b4 <HAL_UART_IRQHandler+0x1d0>
 80034ae:	4620      	mov	r0, r4
 80034b0:	4790      	blx	r2
 80034b2:	6823      	ldr	r3, [r4, #0]
 80034b4:	f8d4 1090 	ldr.w	r1, [r4, #144]	; 0x90
 80034b8:	689a      	ldr	r2, [r3, #8]
 80034ba:	f001 0128 	and.w	r1, r1, #40	; 0x28
 80034be:	f002 0240 	and.w	r2, r2, #64	; 0x40
 80034c2:	ea52 0501 	orrs.w	r5, r2, r1
 80034c6:	f000 80c4 	beq.w	8003652 <HAL_UART_IRQHandler+0x36e>
 80034ca:	e853 2f00 	ldrex	r2, [r3]
 80034ce:	f422 7290 	bic.w	r2, r2, #288	; 0x120
 80034d2:	e843 2100 	strex	r1, r2, [r3]
 80034d6:	2900      	cmp	r1, #0
 80034d8:	d1f7      	bne.n	80034ca <HAL_UART_IRQHandler+0x1e6>
 80034da:	483c      	ldr	r0, [pc, #240]	; (80035cc <HAL_UART_IRQHandler+0x2e8>)
 80034dc:	f103 0208 	add.w	r2, r3, #8
 80034e0:	e852 2f00 	ldrex	r2, [r2]
 80034e4:	4002      	ands	r2, r0
 80034e6:	f103 0508 	add.w	r5, r3, #8
 80034ea:	e845 2100 	strex	r1, r2, [r5]
 80034ee:	2900      	cmp	r1, #0
 80034f0:	d1f4      	bne.n	80034dc <HAL_UART_IRQHandler+0x1f8>
 80034f2:	6ee2      	ldr	r2, [r4, #108]	; 0x6c
 80034f4:	2a01      	cmp	r2, #1
 80034f6:	d054      	beq.n	80035a2 <HAL_UART_IRQHandler+0x2be>
 80034f8:	2200      	movs	r2, #0
 80034fa:	2120      	movs	r1, #32
 80034fc:	f8c4 108c 	str.w	r1, [r4, #140]	; 0x8c
 8003500:	66e2      	str	r2, [r4, #108]	; 0x6c
 8003502:	6899      	ldr	r1, [r3, #8]
 8003504:	6762      	str	r2, [r4, #116]	; 0x74
 8003506:	064a      	lsls	r2, r1, #25
 8003508:	d564      	bpl.n	80035d4 <HAL_UART_IRQHandler+0x2f0>
 800350a:	f103 0208 	add.w	r2, r3, #8
 800350e:	e852 2f00 	ldrex	r2, [r2]
 8003512:	f022 0240 	bic.w	r2, r2, #64	; 0x40
 8003516:	f103 0008 	add.w	r0, r3, #8
 800351a:	e840 2100 	strex	r1, r2, [r0]
 800351e:	2900      	cmp	r1, #0
 8003520:	d1f3      	bne.n	800350a <HAL_UART_IRQHandler+0x226>
 8003522:	f8d4 0080 	ldr.w	r0, [r4, #128]	; 0x80
 8003526:	2800      	cmp	r0, #0
 8003528:	d054      	beq.n	80035d4 <HAL_UART_IRQHandler+0x2f0>
 800352a:	4b29      	ldr	r3, [pc, #164]	; (80035d0 <HAL_UART_IRQHandler+0x2ec>)
 800352c:	6503      	str	r3, [r0, #80]	; 0x50
 800352e:	f7fd fda1 	bl	8001074 <HAL_DMA_Abort_IT>
 8003532:	2800      	cmp	r0, #0
 8003534:	f43f af10 	beq.w	8003358 <HAL_UART_IRQHandler+0x74>
 8003538:	f8d4 0080 	ldr.w	r0, [r4, #128]	; 0x80
 800353c:	6d03      	ldr	r3, [r0, #80]	; 0x50
 800353e:	e00e      	b.n	800355e <HAL_UART_IRQHandler+0x27a>
 8003540:	0696      	lsls	r6, r2, #26
 8003542:	f57f aee4 	bpl.w	800330e <HAL_UART_IRQHandler+0x2a>
 8003546:	f001 0c20 	and.w	ip, r1, #32
 800354a:	f005 5e80 	and.w	lr, r5, #268435456	; 0x10000000
 800354e:	ea5c 0c0e 	orrs.w	ip, ip, lr
 8003552:	f43f aedc 	beq.w	800330e <HAL_UART_IRQHandler+0x2a>
 8003556:	6f43      	ldr	r3, [r0, #116]	; 0x74
 8003558:	2b00      	cmp	r3, #0
 800355a:	f43f aefd 	beq.w	8003358 <HAL_UART_IRQHandler+0x74>
 800355e:	e8bd 4070 	ldmia.w	sp!, {r4, r5, r6, lr}
 8003562:	4718      	bx	r3
 8003564:	0756      	lsls	r6, r2, #29
 8003566:	f57f af77 	bpl.w	8003458 <HAL_UART_IRQHandler+0x174>
 800356a:	07e8      	lsls	r0, r5, #31
 800356c:	f57f af74 	bpl.w	8003458 <HAL_UART_IRQHandler+0x174>
 8003570:	2004      	movs	r0, #4
 8003572:	6218      	str	r0, [r3, #32]
 8003574:	f8d4 0090 	ldr.w	r0, [r4, #144]	; 0x90
 8003578:	f040 0002 	orr.w	r0, r0, #2
 800357c:	f8c4 0090 	str.w	r0, [r4, #144]	; 0x90
 8003580:	e76a      	b.n	8003458 <HAL_UART_IRQHandler+0x174>
 8003582:	6fa3      	ldr	r3, [r4, #120]	; 0x78
 8003584:	2b00      	cmp	r3, #0
 8003586:	f43f aee7 	beq.w	8003358 <HAL_UART_IRQHandler+0x74>
 800358a:	4620      	mov	r0, r4
 800358c:	e8bd 4070 	ldmia.w	sp!, {r4, r5, r6, lr}
 8003590:	4718      	bx	r3
 8003592:	f44f 1280 	mov.w	r2, #1048576	; 0x100000
 8003596:	4620      	mov	r0, r4
 8003598:	621a      	str	r2, [r3, #32]
 800359a:	e8bd 4070 	ldmia.w	sp!, {r4, r5, r6, lr}
 800359e:	f000 bf31 	b.w	8004404 <HAL_UARTEx_WakeupCallback>
 80035a2:	e853 2f00 	ldrex	r2, [r3]
 80035a6:	f022 0210 	bic.w	r2, r2, #16
 80035aa:	e843 2100 	strex	r1, r2, [r3]
 80035ae:	2900      	cmp	r1, #0
 80035b0:	d0a2      	beq.n	80034f8 <HAL_UART_IRQHandler+0x214>
 80035b2:	e853 2f00 	ldrex	r2, [r3]
 80035b6:	f022 0210 	bic.w	r2, r2, #16
 80035ba:	e843 2100 	strex	r1, r2, [r3]
 80035be:	2900      	cmp	r1, #0
 80035c0:	d1ef      	bne.n	80035a2 <HAL_UART_IRQHandler+0x2be>
 80035c2:	e799      	b.n	80034f8 <HAL_UART_IRQHandler+0x214>
 80035c4:	10000001 	.word	0x10000001
 80035c8:	04000120 	.word	0x04000120
 80035cc:	effffffe 	.word	0xeffffffe
 80035d0:	080032cd 	.word	0x080032cd
 80035d4:	4620      	mov	r0, r4
 80035d6:	f7fd f825 	bl	8000624 <HAL_UART_ErrorCallback>
 80035da:	bd70      	pop	{r4, r5, r6, pc}
 80035dc:	4620      	mov	r0, r4
 80035de:	e8bd 4070 	ldmia.w	sp!, {r4, r5, r6, lr}
 80035e2:	f000 bf13 	b.w	800440c <HAL_UARTEx_TxFifoEmptyCallback>
 80035e6:	f8b4 005e 	ldrh.w	r0, [r4, #94]	; 0x5e
 80035ea:	f8b4 105c 	ldrh.w	r1, [r4, #92]	; 0x5c
 80035ee:	f8b4 205e 	ldrh.w	r2, [r4, #94]	; 0x5e
 80035f2:	1a09      	subs	r1, r1, r0
 80035f4:	b292      	uxth	r2, r2
 80035f6:	b289      	uxth	r1, r1
 80035f8:	2a00      	cmp	r2, #0
 80035fa:	f43f aead 	beq.w	8003358 <HAL_UART_IRQHandler+0x74>
 80035fe:	2900      	cmp	r1, #0
 8003600:	f43f aeaa 	beq.w	8003358 <HAL_UART_IRQHandler+0x74>
 8003604:	e853 2f00 	ldrex	r2, [r3]
 8003608:	f422 7290 	bic.w	r2, r2, #288	; 0x120
 800360c:	e843 2000 	strex	r0, r2, [r3]
 8003610:	2800      	cmp	r0, #0
 8003612:	d1f7      	bne.n	8003604 <HAL_UART_IRQHandler+0x320>
 8003614:	4d12      	ldr	r5, [pc, #72]	; (8003660 <HAL_UART_IRQHandler+0x37c>)
 8003616:	f103 0208 	add.w	r2, r3, #8
 800361a:	e852 2f00 	ldrex	r2, [r2]
 800361e:	402a      	ands	r2, r5
 8003620:	f103 0c08 	add.w	ip, r3, #8
 8003624:	e84c 2000 	strex	r0, r2, [ip]
 8003628:	2800      	cmp	r0, #0
 800362a:	d1f4      	bne.n	8003616 <HAL_UART_IRQHandler+0x332>
 800362c:	2220      	movs	r2, #32
 800362e:	6760      	str	r0, [r4, #116]	; 0x74
 8003630:	f8c4 208c 	str.w	r2, [r4, #140]	; 0x8c
 8003634:	66e0      	str	r0, [r4, #108]	; 0x6c
 8003636:	e853 2f00 	ldrex	r2, [r3]
 800363a:	f022 0210 	bic.w	r2, r2, #16
 800363e:	e843 2000 	strex	r0, r2, [r3]
 8003642:	2800      	cmp	r0, #0
 8003644:	d1f7      	bne.n	8003636 <HAL_UART_IRQHandler+0x352>
 8003646:	2302      	movs	r3, #2
 8003648:	4620      	mov	r0, r4
 800364a:	6723      	str	r3, [r4, #112]	; 0x70
 800364c:	f7ff fe48 	bl	80032e0 <HAL_UARTEx_RxEventCallback>
 8003650:	bd70      	pop	{r4, r5, r6, pc}
 8003652:	4620      	mov	r0, r4
 8003654:	f7fc ffe6 	bl	8000624 <HAL_UART_ErrorCallback>
 8003658:	f8c4 5090 	str.w	r5, [r4, #144]	; 0x90
 800365c:	bd70      	pop	{r4, r5, r6, pc}
 800365e:	bf00      	nop
 8003660:	effffffe 	.word	0xeffffffe

08003664 <UART_RxISR_16BIT.part.0>:
 8003664:	6803      	ldr	r3, [r0, #0]
 8003666:	b510      	push	{r4, lr}
 8003668:	e853 2f00 	ldrex	r2, [r3]
 800366c:	f422 7290 	bic.w	r2, r2, #288	; 0x120
 8003670:	e843 2100 	strex	r1, r2, [r3]
 8003674:	2900      	cmp	r1, #0
 8003676:	d1f7      	bne.n	8003668 <UART_RxISR_16BIT.part.0+0x4>
 8003678:	f103 0208 	add.w	r2, r3, #8
 800367c:	e852 2f00 	ldrex	r2, [r2]
 8003680:	f022 0201 	bic.w	r2, r2, #1
 8003684:	f103 0408 	add.w	r4, r3, #8
 8003688:	e844 2100 	strex	r1, r2, [r4]
 800368c:	2900      	cmp	r1, #0
 800368e:	d1f3      	bne.n	8003678 <UART_RxISR_16BIT.part.0+0x14>
 8003690:	4a1a      	ldr	r2, [pc, #104]	; (80036fc <UART_RxISR_16BIT.part.0+0x98>)
 8003692:	2420      	movs	r4, #32
 8003694:	6741      	str	r1, [r0, #116]	; 0x74
 8003696:	4293      	cmp	r3, r2
 8003698:	f8c0 408c 	str.w	r4, [r0, #140]	; 0x8c
 800369c:	6701      	str	r1, [r0, #112]	; 0x70
 800369e:	d002      	beq.n	80036a6 <UART_RxISR_16BIT.part.0+0x42>
 80036a0:	685a      	ldr	r2, [r3, #4]
 80036a2:	0211      	lsls	r1, r2, #8
 80036a4:	d416      	bmi.n	80036d4 <UART_RxISR_16BIT.part.0+0x70>
 80036a6:	6ec2      	ldr	r2, [r0, #108]	; 0x6c
 80036a8:	2a01      	cmp	r2, #1
 80036aa:	d124      	bne.n	80036f6 <UART_RxISR_16BIT.part.0+0x92>
 80036ac:	2200      	movs	r2, #0
 80036ae:	66c2      	str	r2, [r0, #108]	; 0x6c
 80036b0:	e853 2f00 	ldrex	r2, [r3]
 80036b4:	f022 0210 	bic.w	r2, r2, #16
 80036b8:	e843 2100 	strex	r1, r2, [r3]
 80036bc:	2900      	cmp	r1, #0
 80036be:	d1f7      	bne.n	80036b0 <UART_RxISR_16BIT.part.0+0x4c>
 80036c0:	69da      	ldr	r2, [r3, #28]
 80036c2:	06d2      	lsls	r2, r2, #27
 80036c4:	d501      	bpl.n	80036ca <UART_RxISR_16BIT.part.0+0x66>
 80036c6:	2210      	movs	r2, #16
 80036c8:	621a      	str	r2, [r3, #32]
 80036ca:	f8b0 105c 	ldrh.w	r1, [r0, #92]	; 0x5c
 80036ce:	f7ff fe07 	bl	80032e0 <HAL_UARTEx_RxEventCallback>
 80036d2:	bd10      	pop	{r4, pc}
 80036d4:	e853 2f00 	ldrex	r2, [r3]
 80036d8:	f022 6280 	bic.w	r2, r2, #67108864	; 0x4000000
 80036dc:	e843 2100 	strex	r1, r2, [r3]
 80036e0:	2900      	cmp	r1, #0
 80036e2:	d0e0      	beq.n	80036a6 <UART_RxISR_16BIT.part.0+0x42>
 80036e4:	e853 2f00 	ldrex	r2, [r3]
 80036e8:	f022 6280 	bic.w	r2, r2, #67108864	; 0x4000000
 80036ec:	e843 2100 	strex	r1, r2, [r3]
 80036f0:	2900      	cmp	r1, #0
 80036f2:	d1ef      	bne.n	80036d4 <UART_RxISR_16BIT.part.0+0x70>
 80036f4:	e7d7      	b.n	80036a6 <UART_RxISR_16BIT.part.0+0x42>
 80036f6:	f7fc ff79 	bl	80005ec <HAL_UART_RxCpltCallback>
 80036fa:	bd10      	pop	{r4, pc}
 80036fc:	58000c00 	.word	0x58000c00

08003700 <UART_RxISR_16BIT>:
 8003700:	f8d0 108c 	ldr.w	r1, [r0, #140]	; 0x8c
 8003704:	f8b0 2060 	ldrh.w	r2, [r0, #96]	; 0x60
 8003708:	2922      	cmp	r1, #34	; 0x22
 800370a:	d005      	beq.n	8003718 <UART_RxISR_16BIT+0x18>
 800370c:	6802      	ldr	r2, [r0, #0]
 800370e:	6993      	ldr	r3, [r2, #24]
 8003710:	f043 0308 	orr.w	r3, r3, #8
 8003714:	6193      	str	r3, [r2, #24]
 8003716:	4770      	bx	lr
 8003718:	b410      	push	{r4}
 800371a:	6804      	ldr	r4, [r0, #0]
 800371c:	6d81      	ldr	r1, [r0, #88]	; 0x58
 800371e:	6a64      	ldr	r4, [r4, #36]	; 0x24
 8003720:	4022      	ands	r2, r4
 8003722:	f821 2b02 	strh.w	r2, [r1], #2
 8003726:	f8b0 205e 	ldrh.w	r2, [r0, #94]	; 0x5e
 800372a:	6581      	str	r1, [r0, #88]	; 0x58
 800372c:	3a01      	subs	r2, #1
 800372e:	b292      	uxth	r2, r2
 8003730:	f8a0 205e 	strh.w	r2, [r0, #94]	; 0x5e
 8003734:	f8b0 305e 	ldrh.w	r3, [r0, #94]	; 0x5e
 8003738:	b29b      	uxth	r3, r3
 800373a:	b91b      	cbnz	r3, 8003744 <UART_RxISR_16BIT+0x44>
 800373c:	f85d 4b04 	ldr.w	r4, [sp], #4
 8003740:	f7ff bf90 	b.w	8003664 <UART_RxISR_16BIT.part.0>
 8003744:	f85d 4b04 	ldr.w	r4, [sp], #4
 8003748:	4770      	bx	lr
 800374a:	bf00      	nop

0800374c <UART_RxISR_8BIT>:
 800374c:	f8d0 208c 	ldr.w	r2, [r0, #140]	; 0x8c
 8003750:	f8b0 1060 	ldrh.w	r1, [r0, #96]	; 0x60
 8003754:	2a22      	cmp	r2, #34	; 0x22
 8003756:	6802      	ldr	r2, [r0, #0]
 8003758:	d004      	beq.n	8003764 <UART_RxISR_8BIT+0x18>
 800375a:	6993      	ldr	r3, [r2, #24]
 800375c:	f043 0308 	orr.w	r3, r3, #8
 8003760:	6193      	str	r3, [r2, #24]
 8003762:	4770      	bx	lr
 8003764:	6a52      	ldr	r2, [r2, #36]	; 0x24
 8003766:	400a      	ands	r2, r1
 8003768:	6d81      	ldr	r1, [r0, #88]	; 0x58
 800376a:	700a      	strb	r2, [r1, #0]
 800376c:	f8b0 205e 	ldrh.w	r2, [r0, #94]	; 0x5e
 8003770:	6d81      	ldr	r1, [r0, #88]	; 0x58
 8003772:	3a01      	subs	r2, #1
 8003774:	3101      	adds	r1, #1
 8003776:	b292      	uxth	r2, r2
 8003778:	6581      	str	r1, [r0, #88]	; 0x58
 800377a:	f8a0 205e 	strh.w	r2, [r0, #94]	; 0x5e
 800377e:	f8b0 305e 	ldrh.w	r3, [r0, #94]	; 0x5e
 8003782:	b29b      	uxth	r3, r3
 8003784:	2b00      	cmp	r3, #0
 8003786:	d1ec      	bne.n	8003762 <UART_RxISR_8BIT+0x16>
 8003788:	f7ff bf6c 	b.w	8003664 <UART_RxISR_16BIT.part.0>

0800378c <UART_RxISR_8BIT_FIFOEN>:
 800378c:	e92d 4ff8 	stmdb	sp!, {r3, r4, r5, r6, r7, r8, r9, sl, fp, lr}
 8003790:	6802      	ldr	r2, [r0, #0]
 8003792:	4604      	mov	r4, r0
 8003794:	f8b0 a060 	ldrh.w	sl, [r0, #96]	; 0x60
 8003798:	69d0      	ldr	r0, [r2, #28]
 800379a:	6816      	ldr	r6, [r2, #0]
 800379c:	6895      	ldr	r5, [r2, #8]
 800379e:	f8d4 108c 	ldr.w	r1, [r4, #140]	; 0x8c
 80037a2:	2922      	cmp	r1, #34	; 0x22
 80037a4:	d006      	beq.n	80037b4 <UART_RxISR_8BIT_FIFOEN+0x28>
 80037a6:	4613      	mov	r3, r2
 80037a8:	6992      	ldr	r2, [r2, #24]
 80037aa:	f042 0208 	orr.w	r2, r2, #8
 80037ae:	619a      	str	r2, [r3, #24]
 80037b0:	e8bd 8ff8 	ldmia.w	sp!, {r3, r4, r5, r6, r7, r8, r9, sl, fp, pc}
 80037b4:	f8b4 3068 	ldrh.w	r3, [r4, #104]	; 0x68
 80037b8:	2b00      	cmp	r3, #0
 80037ba:	f000 80d5 	beq.w	8003968 <UART_RxISR_8BIT_FIFOEN+0x1dc>
 80037be:	0680      	lsls	r0, r0, #26
 80037c0:	f140 8089 	bpl.w	80038d6 <UART_RxISR_8BIT_FIFOEN+0x14a>
 80037c4:	f406 7680 	and.w	r6, r6, #256	; 0x100
 80037c8:	f005 0501 	and.w	r5, r5, #1
 80037cc:	fa5f fa8a 	uxtb.w	sl, sl
 80037d0:	f04f 0800 	mov.w	r8, #0
 80037d4:	f8df 91a0 	ldr.w	r9, [pc, #416]	; 8003978 <UART_RxISR_8BIT_FIFOEN+0x1ec>
 80037d8:	4f65      	ldr	r7, [pc, #404]	; (8003970 <UART_RxISR_8BIT_FIFOEN+0x1e4>)
 80037da:	6a52      	ldr	r2, [r2, #36]	; 0x24
 80037dc:	6da3      	ldr	r3, [r4, #88]	; 0x58
 80037de:	ea0a 0202 	and.w	r2, sl, r2
 80037e2:	701a      	strb	r2, [r3, #0]
 80037e4:	f8b4 105e 	ldrh.w	r1, [r4, #94]	; 0x5e
 80037e8:	6823      	ldr	r3, [r4, #0]
 80037ea:	3901      	subs	r1, #1
 80037ec:	6da2      	ldr	r2, [r4, #88]	; 0x58
 80037ee:	b289      	uxth	r1, r1
 80037f0:	3201      	adds	r2, #1
 80037f2:	f8a4 105e 	strh.w	r1, [r4, #94]	; 0x5e
 80037f6:	f8d3 b01c 	ldr.w	fp, [r3, #28]
 80037fa:	65a2      	str	r2, [r4, #88]	; 0x58
 80037fc:	f01b 0f07 	tst.w	fp, #7
 8003800:	d01d      	beq.n	800383e <UART_RxISR_8BIT_FIFOEN+0xb2>
 8003802:	f01b 0f01 	tst.w	fp, #1
 8003806:	d008      	beq.n	800381a <UART_RxISR_8BIT_FIFOEN+0x8e>
 8003808:	b13e      	cbz	r6, 800381a <UART_RxISR_8BIT_FIFOEN+0x8e>
 800380a:	2201      	movs	r2, #1
 800380c:	621a      	str	r2, [r3, #32]
 800380e:	f8d4 2090 	ldr.w	r2, [r4, #144]	; 0x90
 8003812:	f042 0201 	orr.w	r2, r2, #1
 8003816:	f8c4 2090 	str.w	r2, [r4, #144]	; 0x90
 800381a:	f01b 0f02 	tst.w	fp, #2
 800381e:	d017      	beq.n	8003850 <UART_RxISR_8BIT_FIFOEN+0xc4>
 8003820:	b155      	cbz	r5, 8003838 <UART_RxISR_8BIT_FIFOEN+0xac>
 8003822:	2202      	movs	r2, #2
 8003824:	f01b 0f04 	tst.w	fp, #4
 8003828:	621a      	str	r2, [r3, #32]
 800382a:	f8d4 2090 	ldr.w	r2, [r4, #144]	; 0x90
 800382e:	f042 0204 	orr.w	r2, r2, #4
 8003832:	f8c4 2090 	str.w	r2, [r4, #144]	; 0x90
 8003836:	d110      	bne.n	800385a <UART_RxISR_8BIT_FIFOEN+0xce>
 8003838:	f8d4 3090 	ldr.w	r3, [r4, #144]	; 0x90
 800383c:	b9cb      	cbnz	r3, 8003872 <UART_RxISR_8BIT_FIFOEN+0xe6>
 800383e:	f8b4 305e 	ldrh.w	r3, [r4, #94]	; 0x5e
 8003842:	b29b      	uxth	r3, r3
 8003844:	b1fb      	cbz	r3, 8003886 <UART_RxISR_8BIT_FIFOEN+0xfa>
 8003846:	f01b 0f20 	tst.w	fp, #32
 800384a:	d044      	beq.n	80038d6 <UART_RxISR_8BIT_FIFOEN+0x14a>
 800384c:	6822      	ldr	r2, [r4, #0]
 800384e:	e7c4      	b.n	80037da <UART_RxISR_8BIT_FIFOEN+0x4e>
 8003850:	f01b 0f04 	tst.w	fp, #4
 8003854:	d0f0      	beq.n	8003838 <UART_RxISR_8BIT_FIFOEN+0xac>
 8003856:	2d00      	cmp	r5, #0
 8003858:	d0ee      	beq.n	8003838 <UART_RxISR_8BIT_FIFOEN+0xac>
 800385a:	2204      	movs	r2, #4
 800385c:	621a      	str	r2, [r3, #32]
 800385e:	f8d4 3090 	ldr.w	r3, [r4, #144]	; 0x90
 8003862:	f043 0302 	orr.w	r3, r3, #2
 8003866:	f8c4 3090 	str.w	r3, [r4, #144]	; 0x90
 800386a:	f8d4 3090 	ldr.w	r3, [r4, #144]	; 0x90
 800386e:	2b00      	cmp	r3, #0
 8003870:	d0e5      	beq.n	800383e <UART_RxISR_8BIT_FIFOEN+0xb2>
 8003872:	4620      	mov	r0, r4
 8003874:	f7fc fed6 	bl	8000624 <HAL_UART_ErrorCallback>
 8003878:	f8c4 8090 	str.w	r8, [r4, #144]	; 0x90
 800387c:	f8b4 305e 	ldrh.w	r3, [r4, #94]	; 0x5e
 8003880:	b29b      	uxth	r3, r3
 8003882:	2b00      	cmp	r3, #0
 8003884:	d1df      	bne.n	8003846 <UART_RxISR_8BIT_FIFOEN+0xba>
 8003886:	6823      	ldr	r3, [r4, #0]
 8003888:	e853 2f00 	ldrex	r2, [r3]
 800388c:	f422 7280 	bic.w	r2, r2, #256	; 0x100
 8003890:	e843 2100 	strex	r1, r2, [r3]
 8003894:	2900      	cmp	r1, #0
 8003896:	d1f7      	bne.n	8003888 <UART_RxISR_8BIT_FIFOEN+0xfc>
 8003898:	f103 0208 	add.w	r2, r3, #8
 800389c:	e852 2f00 	ldrex	r2, [r2]
 80038a0:	ea02 0209 	and.w	r2, r2, r9
 80038a4:	f103 0008 	add.w	r0, r3, #8
 80038a8:	e840 2100 	strex	r1, r2, [r0]
 80038ac:	2900      	cmp	r1, #0
 80038ae:	d1f3      	bne.n	8003898 <UART_RxISR_8BIT_FIFOEN+0x10c>
 80038b0:	2220      	movs	r2, #32
 80038b2:	42bb      	cmp	r3, r7
 80038b4:	6761      	str	r1, [r4, #116]	; 0x74
 80038b6:	f8c4 208c 	str.w	r2, [r4, #140]	; 0x8c
 80038ba:	6721      	str	r1, [r4, #112]	; 0x70
 80038bc:	d002      	beq.n	80038c4 <UART_RxISR_8BIT_FIFOEN+0x138>
 80038be:	685a      	ldr	r2, [r3, #4]
 80038c0:	0211      	lsls	r1, r2, #8
 80038c2:	d42b      	bmi.n	800391c <UART_RxISR_8BIT_FIFOEN+0x190>
 80038c4:	6ee2      	ldr	r2, [r4, #108]	; 0x6c
 80038c6:	2a01      	cmp	r2, #1
 80038c8:	d039      	beq.n	800393e <UART_RxISR_8BIT_FIFOEN+0x1b2>
 80038ca:	4620      	mov	r0, r4
 80038cc:	f7fc fe8e 	bl	80005ec <HAL_UART_RxCpltCallback>
 80038d0:	f01b 0f20 	tst.w	fp, #32
 80038d4:	d1ba      	bne.n	800384c <UART_RxISR_8BIT_FIFOEN+0xc0>
 80038d6:	f8b4 305e 	ldrh.w	r3, [r4, #94]	; 0x5e
 80038da:	b29b      	uxth	r3, r3
 80038dc:	2b00      	cmp	r3, #0
 80038de:	f43f af67 	beq.w	80037b0 <UART_RxISR_8BIT_FIFOEN+0x24>
 80038e2:	f8b4 2068 	ldrh.w	r2, [r4, #104]	; 0x68
 80038e6:	429a      	cmp	r2, r3
 80038e8:	f67f af62 	bls.w	80037b0 <UART_RxISR_8BIT_FIFOEN+0x24>
 80038ec:	6823      	ldr	r3, [r4, #0]
 80038ee:	f103 0208 	add.w	r2, r3, #8
 80038f2:	e852 2f00 	ldrex	r2, [r2]
 80038f6:	f022 5280 	bic.w	r2, r2, #268435456	; 0x10000000
 80038fa:	f103 0008 	add.w	r0, r3, #8
 80038fe:	e840 2100 	strex	r1, r2, [r0]
 8003902:	2900      	cmp	r1, #0
 8003904:	d1f3      	bne.n	80038ee <UART_RxISR_8BIT_FIFOEN+0x162>
 8003906:	4a1b      	ldr	r2, [pc, #108]	; (8003974 <UART_RxISR_8BIT_FIFOEN+0x1e8>)
 8003908:	6762      	str	r2, [r4, #116]	; 0x74
 800390a:	e853 2f00 	ldrex	r2, [r3]
 800390e:	f042 0220 	orr.w	r2, r2, #32
 8003912:	e843 2100 	strex	r1, r2, [r3]
 8003916:	2900      	cmp	r1, #0
 8003918:	d1f7      	bne.n	800390a <UART_RxISR_8BIT_FIFOEN+0x17e>
 800391a:	e749      	b.n	80037b0 <UART_RxISR_8BIT_FIFOEN+0x24>
 800391c:	e853 2f00 	ldrex	r2, [r3]
 8003920:	f022 6280 	bic.w	r2, r2, #67108864	; 0x4000000
 8003924:	e843 2100 	strex	r1, r2, [r3]
 8003928:	2900      	cmp	r1, #0
 800392a:	d0cb      	beq.n	80038c4 <UART_RxISR_8BIT_FIFOEN+0x138>
 800392c:	e853 2f00 	ldrex	r2, [r3]
 8003930:	f022 6280 	bic.w	r2, r2, #67108864	; 0x4000000
 8003934:	e843 2100 	strex	r1, r2, [r3]
 8003938:	2900      	cmp	r1, #0
 800393a:	d1ef      	bne.n	800391c <UART_RxISR_8BIT_FIFOEN+0x190>
 800393c:	e7c2      	b.n	80038c4 <UART_RxISR_8BIT_FIFOEN+0x138>
 800393e:	f8c4 806c 	str.w	r8, [r4, #108]	; 0x6c
 8003942:	e853 2f00 	ldrex	r2, [r3]
 8003946:	f022 0210 	bic.w	r2, r2, #16
 800394a:	e843 2100 	strex	r1, r2, [r3]
 800394e:	2900      	cmp	r1, #0
 8003950:	d1f7      	bne.n	8003942 <UART_RxISR_8BIT_FIFOEN+0x1b6>
 8003952:	69da      	ldr	r2, [r3, #28]
 8003954:	06d2      	lsls	r2, r2, #27
 8003956:	d501      	bpl.n	800395c <UART_RxISR_8BIT_FIFOEN+0x1d0>
 8003958:	2210      	movs	r2, #16
 800395a:	621a      	str	r2, [r3, #32]
 800395c:	f8b4 105c 	ldrh.w	r1, [r4, #92]	; 0x5c
 8003960:	4620      	mov	r0, r4
 8003962:	f7ff fcbd 	bl	80032e0 <HAL_UARTEx_RxEventCallback>
 8003966:	e76e      	b.n	8003846 <UART_RxISR_8BIT_FIFOEN+0xba>
 8003968:	f8b4 305e 	ldrh.w	r3, [r4, #94]	; 0x5e
 800396c:	e720      	b.n	80037b0 <UART_RxISR_8BIT_FIFOEN+0x24>
 800396e:	bf00      	nop
 8003970:	58000c00 	.word	0x58000c00
 8003974:	0800374d 	.word	0x0800374d
 8003978:	effffffe 	.word	0xeffffffe

0800397c <UART_RxISR_16BIT_FIFOEN>:
 800397c:	e92d 4ff8 	stmdb	sp!, {r3, r4, r5, r6, r7, r8, r9, sl, fp, lr}
 8003980:	6803      	ldr	r3, [r0, #0]
 8003982:	f8b0 a060 	ldrh.w	sl, [r0, #96]	; 0x60
 8003986:	69d9      	ldr	r1, [r3, #28]
 8003988:	681e      	ldr	r6, [r3, #0]
 800398a:	689d      	ldr	r5, [r3, #8]
 800398c:	f8d0 208c 	ldr.w	r2, [r0, #140]	; 0x8c
 8003990:	2a22      	cmp	r2, #34	; 0x22
 8003992:	d005      	beq.n	80039a0 <UART_RxISR_16BIT_FIFOEN+0x24>
 8003994:	699a      	ldr	r2, [r3, #24]
 8003996:	f042 0208 	orr.w	r2, r2, #8
 800399a:	619a      	str	r2, [r3, #24]
 800399c:	e8bd 8ff8 	ldmia.w	sp!, {r3, r4, r5, r6, r7, r8, r9, sl, fp, pc}
 80039a0:	f8b0 2068 	ldrh.w	r2, [r0, #104]	; 0x68
 80039a4:	4683      	mov	fp, r0
 80039a6:	2a00      	cmp	r2, #0
 80039a8:	f000 80d2 	beq.w	8003b50 <UART_RxISR_16BIT_FIFOEN+0x1d4>
 80039ac:	0689      	lsls	r1, r1, #26
 80039ae:	f140 8084 	bpl.w	8003aba <UART_RxISR_16BIT_FIFOEN+0x13e>
 80039b2:	f406 7680 	and.w	r6, r6, #256	; 0x100
 80039b6:	f005 0501 	and.w	r5, r5, #1
 80039ba:	f04f 0800 	mov.w	r8, #0
 80039be:	f8df 91a0 	ldr.w	r9, [pc, #416]	; 8003b60 <UART_RxISR_16BIT_FIFOEN+0x1e4>
 80039c2:	4f65      	ldr	r7, [pc, #404]	; (8003b58 <UART_RxISR_16BIT_FIFOEN+0x1dc>)
 80039c4:	6a5a      	ldr	r2, [r3, #36]	; 0x24
 80039c6:	f8db 1058 	ldr.w	r1, [fp, #88]	; 0x58
 80039ca:	ea0a 0202 	and.w	r2, sl, r2
 80039ce:	f821 2b02 	strh.w	r2, [r1], #2
 80039d2:	f8bb 205e 	ldrh.w	r2, [fp, #94]	; 0x5e
 80039d6:	f8cb 1058 	str.w	r1, [fp, #88]	; 0x58
 80039da:	3a01      	subs	r2, #1
 80039dc:	b292      	uxth	r2, r2
 80039de:	f8ab 205e 	strh.w	r2, [fp, #94]	; 0x5e
 80039e2:	69dc      	ldr	r4, [r3, #28]
 80039e4:	0762      	lsls	r2, r4, #29
 80039e6:	d01a      	beq.n	8003a1e <UART_RxISR_16BIT_FIFOEN+0xa2>
 80039e8:	07e0      	lsls	r0, r4, #31
 80039ea:	d508      	bpl.n	80039fe <UART_RxISR_16BIT_FIFOEN+0x82>
 80039ec:	b13e      	cbz	r6, 80039fe <UART_RxISR_16BIT_FIFOEN+0x82>
 80039ee:	2201      	movs	r2, #1
 80039f0:	621a      	str	r2, [r3, #32]
 80039f2:	f8db 2090 	ldr.w	r2, [fp, #144]	; 0x90
 80039f6:	f042 0201 	orr.w	r2, r2, #1
 80039fa:	f8cb 2090 	str.w	r2, [fp, #144]	; 0x90
 80039fe:	07a1      	lsls	r1, r4, #30
 8003a00:	d516      	bpl.n	8003a30 <UART_RxISR_16BIT_FIFOEN+0xb4>
 8003a02:	b14d      	cbz	r5, 8003a18 <UART_RxISR_16BIT_FIFOEN+0x9c>
 8003a04:	2202      	movs	r2, #2
 8003a06:	621a      	str	r2, [r3, #32]
 8003a08:	f8db 2090 	ldr.w	r2, [fp, #144]	; 0x90
 8003a0c:	f042 0204 	orr.w	r2, r2, #4
 8003a10:	f8cb 2090 	str.w	r2, [fp, #144]	; 0x90
 8003a14:	0762      	lsls	r2, r4, #29
 8003a16:	d40f      	bmi.n	8003a38 <UART_RxISR_16BIT_FIFOEN+0xbc>
 8003a18:	f8db 3090 	ldr.w	r3, [fp, #144]	; 0x90
 8003a1c:	b9c3      	cbnz	r3, 8003a50 <UART_RxISR_16BIT_FIFOEN+0xd4>
 8003a1e:	f8bb 305e 	ldrh.w	r3, [fp, #94]	; 0x5e
 8003a22:	b29b      	uxth	r3, r3
 8003a24:	b1f3      	cbz	r3, 8003a64 <UART_RxISR_16BIT_FIFOEN+0xe8>
 8003a26:	06a3      	lsls	r3, r4, #26
 8003a28:	d547      	bpl.n	8003aba <UART_RxISR_16BIT_FIFOEN+0x13e>
 8003a2a:	f8db 3000 	ldr.w	r3, [fp]
 8003a2e:	e7c9      	b.n	80039c4 <UART_RxISR_16BIT_FIFOEN+0x48>
 8003a30:	0760      	lsls	r0, r4, #29
 8003a32:	d5f1      	bpl.n	8003a18 <UART_RxISR_16BIT_FIFOEN+0x9c>
 8003a34:	2d00      	cmp	r5, #0
 8003a36:	d0ef      	beq.n	8003a18 <UART_RxISR_16BIT_FIFOEN+0x9c>
 8003a38:	2204      	movs	r2, #4
 8003a3a:	621a      	str	r2, [r3, #32]
 8003a3c:	f8db 3090 	ldr.w	r3, [fp, #144]	; 0x90
 8003a40:	f043 0302 	orr.w	r3, r3, #2
 8003a44:	f8cb 3090 	str.w	r3, [fp, #144]	; 0x90
 8003a48:	f8db 3090 	ldr.w	r3, [fp, #144]	; 0x90
 8003a4c:	2b00      	cmp	r3, #0
 8003a4e:	d0e6      	beq.n	8003a1e <UART_RxISR_16BIT_FIFOEN+0xa2>
 8003a50:	4658      	mov	r0, fp
 8003a52:	f7fc fde7 	bl	8000624 <HAL_UART_ErrorCallback>
 8003a56:	f8cb 8090 	str.w	r8, [fp, #144]	; 0x90
 8003a5a:	f8bb 305e 	ldrh.w	r3, [fp, #94]	; 0x5e
 8003a5e:	b29b      	uxth	r3, r3
 8003a60:	2b00      	cmp	r3, #0
 8003a62:	d1e0      	bne.n	8003a26 <UART_RxISR_16BIT_FIFOEN+0xaa>
 8003a64:	f8db 3000 	ldr.w	r3, [fp]
 8003a68:	e853 2f00 	ldrex	r2, [r3]
 8003a6c:	f422 7280 	bic.w	r2, r2, #256	; 0x100
 8003a70:	e843 2100 	strex	r1, r2, [r3]
 8003a74:	2900      	cmp	r1, #0
 8003a76:	d1f7      	bne.n	8003a68 <UART_RxISR_16BIT_FIFOEN+0xec>
 8003a78:	f103 0208 	add.w	r2, r3, #8
 8003a7c:	e852 2f00 	ldrex	r2, [r2]
 8003a80:	ea02 0209 	and.w	r2, r2, r9
 8003a84:	f103 0008 	add.w	r0, r3, #8
 8003a88:	e840 2100 	strex	r1, r2, [r0]
 8003a8c:	2900      	cmp	r1, #0
 8003a8e:	d1f3      	bne.n	8003a78 <UART_RxISR_16BIT_FIFOEN+0xfc>
 8003a90:	2220      	movs	r2, #32
 8003a92:	42bb      	cmp	r3, r7
 8003a94:	f8cb 1074 	str.w	r1, [fp, #116]	; 0x74
 8003a98:	f8cb 208c 	str.w	r2, [fp, #140]	; 0x8c
 8003a9c:	f8cb 1070 	str.w	r1, [fp, #112]	; 0x70
 8003aa0:	d002      	beq.n	8003aa8 <UART_RxISR_16BIT_FIFOEN+0x12c>
 8003aa2:	685a      	ldr	r2, [r3, #4]
 8003aa4:	0211      	lsls	r1, r2, #8
 8003aa6:	d42d      	bmi.n	8003b04 <UART_RxISR_16BIT_FIFOEN+0x188>
 8003aa8:	f8db 206c 	ldr.w	r2, [fp, #108]	; 0x6c
 8003aac:	2a01      	cmp	r2, #1
 8003aae:	d03a      	beq.n	8003b26 <UART_RxISR_16BIT_FIFOEN+0x1aa>
 8003ab0:	4658      	mov	r0, fp
 8003ab2:	f7fc fd9b 	bl	80005ec <HAL_UART_RxCpltCallback>
 8003ab6:	06a3      	lsls	r3, r4, #26
 8003ab8:	d4b7      	bmi.n	8003a2a <UART_RxISR_16BIT_FIFOEN+0xae>
 8003aba:	f8bb 305e 	ldrh.w	r3, [fp, #94]	; 0x5e
 8003abe:	b29b      	uxth	r3, r3
 8003ac0:	2b00      	cmp	r3, #0
 8003ac2:	f43f af6b 	beq.w	800399c <UART_RxISR_16BIT_FIFOEN+0x20>
 8003ac6:	f8bb 2068 	ldrh.w	r2, [fp, #104]	; 0x68
 8003aca:	429a      	cmp	r2, r3
 8003acc:	f67f af66 	bls.w	800399c <UART_RxISR_16BIT_FIFOEN+0x20>
 8003ad0:	f8db 3000 	ldr.w	r3, [fp]
 8003ad4:	f103 0208 	add.w	r2, r3, #8
 8003ad8:	e852 2f00 	ldrex	r2, [r2]
 8003adc:	f022 5280 	bic.w	r2, r2, #268435456	; 0x10000000
 8003ae0:	f103 0008 	add.w	r0, r3, #8
 8003ae4:	e840 2100 	strex	r1, r2, [r0]
 8003ae8:	2900      	cmp	r1, #0
 8003aea:	d1f3      	bne.n	8003ad4 <UART_RxISR_16BIT_FIFOEN+0x158>
 8003aec:	4a1b      	ldr	r2, [pc, #108]	; (8003b5c <UART_RxISR_16BIT_FIFOEN+0x1e0>)
 8003aee:	f8cb 2074 	str.w	r2, [fp, #116]	; 0x74
 8003af2:	e853 2f00 	ldrex	r2, [r3]
 8003af6:	f042 0220 	orr.w	r2, r2, #32
 8003afa:	e843 2100 	strex	r1, r2, [r3]
 8003afe:	2900      	cmp	r1, #0
 8003b00:	d1f7      	bne.n	8003af2 <UART_RxISR_16BIT_FIFOEN+0x176>
 8003b02:	e74b      	b.n	800399c <UART_RxISR_16BIT_FIFOEN+0x20>
 8003b04:	e853 2f00 	ldrex	r2, [r3]
 8003b08:	f022 6280 	bic.w	r2, r2, #67108864	; 0x4000000
 8003b0c:	e843 2100 	strex	r1, r2, [r3]
 8003b10:	2900      	cmp	r1, #0
 8003b12:	d0c9      	beq.n	8003aa8 <UART_RxISR_16BIT_FIFOEN+0x12c>
 8003b14:	e853 2f00 	ldrex	r2, [r3]
 8003b18:	f022 6280 	bic.w	r2, r2, #67108864	; 0x4000000
 8003b1c:	e843 2100 	strex	r1, r2, [r3]
 8003b20:	2900      	cmp	r1, #0
 8003b22:	d1ef      	bne.n	8003b04 <UART_RxISR_16BIT_FIFOEN+0x188>
 8003b24:	e7c0      	b.n	8003aa8 <UART_RxISR_16BIT_FIFOEN+0x12c>
 8003b26:	f8cb 806c 	str.w	r8, [fp, #108]	; 0x6c
 8003b2a:	e853 2f00 	ldrex	r2, [r3]
 8003b2e:	f022 0210 	bic.w	r2, r2, #16
 8003b32:	e843 2100 	strex	r1, r2, [r3]
 8003b36:	2900      	cmp	r1, #0
 8003b38:	d1f7      	bne.n	8003b2a <UART_RxISR_16BIT_FIFOEN+0x1ae>
 8003b3a:	69da      	ldr	r2, [r3, #28]
 8003b3c:	06d2      	lsls	r2, r2, #27
 8003b3e:	d501      	bpl.n	8003b44 <UART_RxISR_16BIT_FIFOEN+0x1c8>
 8003b40:	2210      	movs	r2, #16
 8003b42:	621a      	str	r2, [r3, #32]
 8003b44:	f8bb 105c 	ldrh.w	r1, [fp, #92]	; 0x5c
 8003b48:	4658      	mov	r0, fp
 8003b4a:	f7ff fbc9 	bl	80032e0 <HAL_UARTEx_RxEventCallback>
 8003b4e:	e76a      	b.n	8003a26 <UART_RxISR_16BIT_FIFOEN+0xaa>
 8003b50:	f8b0 305e 	ldrh.w	r3, [r0, #94]	; 0x5e
 8003b54:	e722      	b.n	800399c <UART_RxISR_16BIT_FIFOEN+0x20>
 8003b56:	bf00      	nop
 8003b58:	58000c00 	.word	0x58000c00
 8003b5c:	08003701 	.word	0x08003701
 8003b60:	effffffe 	.word	0xeffffffe

08003b64 <UART_SetConfig>:
 8003b64:	6901      	ldr	r1, [r0, #16]
 8003b66:	6882      	ldr	r2, [r0, #8]
 8003b68:	6803      	ldr	r3, [r0, #0]
 8003b6a:	430a      	orrs	r2, r1
 8003b6c:	49ae      	ldr	r1, [pc, #696]	; (8003e28 <UART_SetConfig+0x2c4>)
 8003b6e:	b530      	push	{r4, r5, lr}
 8003b70:	6945      	ldr	r5, [r0, #20]
 8003b72:	4604      	mov	r4, r0
 8003b74:	69c0      	ldr	r0, [r0, #28]
 8003b76:	b087      	sub	sp, #28
 8003b78:	432a      	orrs	r2, r5
 8003b7a:	681d      	ldr	r5, [r3, #0]
 8003b7c:	4302      	orrs	r2, r0
 8003b7e:	4029      	ands	r1, r5
 8003b80:	4daa      	ldr	r5, [pc, #680]	; (8003e2c <UART_SetConfig+0x2c8>)
 8003b82:	430a      	orrs	r2, r1
 8003b84:	68e1      	ldr	r1, [r4, #12]
 8003b86:	42ab      	cmp	r3, r5
 8003b88:	601a      	str	r2, [r3, #0]
 8003b8a:	685a      	ldr	r2, [r3, #4]
 8003b8c:	f422 5240 	bic.w	r2, r2, #12288	; 0x3000
 8003b90:	ea42 0201 	orr.w	r2, r2, r1
 8003b94:	69a1      	ldr	r1, [r4, #24]
 8003b96:	605a      	str	r2, [r3, #4]
 8003b98:	d07d      	beq.n	8003c96 <UART_SetConfig+0x132>
 8003b9a:	6a22      	ldr	r2, [r4, #32]
 8003b9c:	689d      	ldr	r5, [r3, #8]
 8003b9e:	4311      	orrs	r1, r2
 8003ba0:	4aa3      	ldr	r2, [pc, #652]	; (8003e30 <UART_SetConfig+0x2cc>)
 8003ba2:	402a      	ands	r2, r5
 8003ba4:	6a65      	ldr	r5, [r4, #36]	; 0x24
 8003ba6:	4311      	orrs	r1, r2
 8003ba8:	6099      	str	r1, [r3, #8]
 8003baa:	6ada      	ldr	r2, [r3, #44]	; 0x2c
 8003bac:	f022 020f 	bic.w	r2, r2, #15
 8003bb0:	432a      	orrs	r2, r5
 8003bb2:	62da      	str	r2, [r3, #44]	; 0x2c
 8003bb4:	4a9f      	ldr	r2, [pc, #636]	; (8003e34 <UART_SetConfig+0x2d0>)
 8003bb6:	4293      	cmp	r3, r2
 8003bb8:	d02a      	beq.n	8003c10 <UART_SetConfig+0xac>
 8003bba:	4a9f      	ldr	r2, [pc, #636]	; (8003e38 <UART_SetConfig+0x2d4>)
 8003bbc:	4293      	cmp	r3, r2
 8003bbe:	d05b      	beq.n	8003c78 <UART_SetConfig+0x114>
 8003bc0:	4a9e      	ldr	r2, [pc, #632]	; (8003e3c <UART_SetConfig+0x2d8>)
 8003bc2:	4293      	cmp	r3, r2
 8003bc4:	f000 81ad 	beq.w	8003f22 <UART_SetConfig+0x3be>
 8003bc8:	4a9d      	ldr	r2, [pc, #628]	; (8003e40 <UART_SetConfig+0x2dc>)
 8003bca:	4293      	cmp	r3, r2
 8003bcc:	f000 81d2 	beq.w	8003f74 <UART_SetConfig+0x410>
 8003bd0:	4a9c      	ldr	r2, [pc, #624]	; (8003e44 <UART_SetConfig+0x2e0>)
 8003bd2:	4293      	cmp	r3, r2
 8003bd4:	f000 810c 	beq.w	8003df0 <UART_SetConfig+0x28c>
 8003bd8:	4a9b      	ldr	r2, [pc, #620]	; (8003e48 <UART_SetConfig+0x2e4>)
 8003bda:	4293      	cmp	r3, r2
 8003bdc:	f000 81d4 	beq.w	8003f88 <UART_SetConfig+0x424>
 8003be0:	4a9a      	ldr	r2, [pc, #616]	; (8003e4c <UART_SetConfig+0x2e8>)
 8003be2:	4293      	cmp	r3, r2
 8003be4:	f000 8225 	beq.w	8004032 <UART_SetConfig+0x4ce>
 8003be8:	4a99      	ldr	r2, [pc, #612]	; (8003e50 <UART_SetConfig+0x2ec>)
 8003bea:	4293      	cmp	r3, r2
 8003bec:	f000 81d8 	beq.w	8003fa0 <UART_SetConfig+0x43c>
 8003bf0:	4a98      	ldr	r2, [pc, #608]	; (8003e54 <UART_SetConfig+0x2f0>)
 8003bf2:	4293      	cmp	r3, r2
 8003bf4:	f000 8229 	beq.w	800404a <UART_SetConfig+0x4e6>
 8003bf8:	4a97      	ldr	r2, [pc, #604]	; (8003e58 <UART_SetConfig+0x2f4>)
 8003bfa:	4293      	cmp	r3, r2
 8003bfc:	d142      	bne.n	8003c84 <UART_SetConfig+0x120>
 8003bfe:	4b97      	ldr	r3, [pc, #604]	; (8003e5c <UART_SetConfig+0x2f8>)
 8003c00:	6d5b      	ldr	r3, [r3, #84]	; 0x54
 8003c02:	f003 0338 	and.w	r3, r3, #56	; 0x38
 8003c06:	2b28      	cmp	r3, #40	; 0x28
 8003c08:	d83c      	bhi.n	8003c84 <UART_SetConfig+0x120>
 8003c0a:	4a95      	ldr	r2, [pc, #596]	; (8003e60 <UART_SetConfig+0x2fc>)
 8003c0c:	5cd3      	ldrb	r3, [r2, r3]
 8003c0e:	e007      	b.n	8003c20 <UART_SetConfig+0xbc>
 8003c10:	4b92      	ldr	r3, [pc, #584]	; (8003e5c <UART_SetConfig+0x2f8>)
 8003c12:	6d5b      	ldr	r3, [r3, #84]	; 0x54
 8003c14:	f003 0338 	and.w	r3, r3, #56	; 0x38
 8003c18:	2b28      	cmp	r3, #40	; 0x28
 8003c1a:	d833      	bhi.n	8003c84 <UART_SetConfig+0x120>
 8003c1c:	4a91      	ldr	r2, [pc, #580]	; (8003e64 <UART_SetConfig+0x300>)
 8003c1e:	5cd3      	ldrb	r3, [r2, r3]
 8003c20:	f5b0 4f00 	cmp.w	r0, #32768	; 0x8000
 8003c24:	f000 809a 	beq.w	8003d5c <UART_SetConfig+0x1f8>
 8003c28:	2b20      	cmp	r3, #32
 8003c2a:	f200 8133 	bhi.w	8003e94 <UART_SetConfig+0x330>
 8003c2e:	2b20      	cmp	r3, #32
 8003c30:	d828      	bhi.n	8003c84 <UART_SetConfig+0x120>
 8003c32:	e8df f013 	tbh	[pc, r3, lsl #1]
 8003c36:	012c      	.short	0x012c
 8003c38:	00270129 	.word	0x00270129
 8003c3c:	01210027 	.word	0x01210027
 8003c40:	00270027 	.word	0x00270027
 8003c44:	00f20027 	.word	0x00f20027
 8003c48:	00270027 	.word	0x00270027
 8003c4c:	00270027 	.word	0x00270027
 8003c50:	00270027 	.word	0x00270027
 8003c54:	00e70027 	.word	0x00e70027
 8003c58:	00270027 	.word	0x00270027
 8003c5c:	00270027 	.word	0x00270027
 8003c60:	00270027 	.word	0x00270027
 8003c64:	00270027 	.word	0x00270027
 8003c68:	00270027 	.word	0x00270027
 8003c6c:	00270027 	.word	0x00270027
 8003c70:	00270027 	.word	0x00270027
 8003c74:	01bf0027 	.word	0x01bf0027
 8003c78:	4b78      	ldr	r3, [pc, #480]	; (8003e5c <UART_SetConfig+0x2f8>)
 8003c7a:	6d5b      	ldr	r3, [r3, #84]	; 0x54
 8003c7c:	f003 0307 	and.w	r3, r3, #7
 8003c80:	2b05      	cmp	r3, #5
 8003c82:	d965      	bls.n	8003d50 <UART_SetConfig+0x1ec>
 8003c84:	2001      	movs	r0, #1
 8003c86:	2300      	movs	r3, #0
 8003c88:	f04f 1201 	mov.w	r2, #65537	; 0x10001
 8003c8c:	6763      	str	r3, [r4, #116]	; 0x74
 8003c8e:	66a2      	str	r2, [r4, #104]	; 0x68
 8003c90:	67a3      	str	r3, [r4, #120]	; 0x78
 8003c92:	b007      	add	sp, #28
 8003c94:	bd30      	pop	{r4, r5, pc}
 8003c96:	6898      	ldr	r0, [r3, #8]
 8003c98:	4a65      	ldr	r2, [pc, #404]	; (8003e30 <UART_SetConfig+0x2cc>)
 8003c9a:	4002      	ands	r2, r0
 8003c9c:	486f      	ldr	r0, [pc, #444]	; (8003e5c <UART_SetConfig+0x2f8>)
 8003c9e:	430a      	orrs	r2, r1
 8003ca0:	609a      	str	r2, [r3, #8]
 8003ca2:	6ada      	ldr	r2, [r3, #44]	; 0x2c
 8003ca4:	6a61      	ldr	r1, [r4, #36]	; 0x24
 8003ca6:	f022 020f 	bic.w	r2, r2, #15
 8003caa:	430a      	orrs	r2, r1
 8003cac:	62da      	str	r2, [r3, #44]	; 0x2c
 8003cae:	6d83      	ldr	r3, [r0, #88]	; 0x58
 8003cb0:	f003 0307 	and.w	r3, r3, #7
 8003cb4:	2b05      	cmp	r3, #5
 8003cb6:	d8e5      	bhi.n	8003c84 <UART_SetConfig+0x120>
 8003cb8:	4a6b      	ldr	r2, [pc, #428]	; (8003e68 <UART_SetConfig+0x304>)
 8003cba:	5cd3      	ldrb	r3, [r2, r3]
 8003cbc:	2b20      	cmp	r3, #32
 8003cbe:	f200 8103 	bhi.w	8003ec8 <UART_SetConfig+0x364>
 8003cc2:	2b01      	cmp	r3, #1
 8003cc4:	d9de      	bls.n	8003c84 <UART_SetConfig+0x120>
 8003cc6:	3b02      	subs	r3, #2
 8003cc8:	2b1e      	cmp	r3, #30
 8003cca:	d8db      	bhi.n	8003c84 <UART_SetConfig+0x120>
 8003ccc:	a201      	add	r2, pc, #4	; (adr r2, 8003cd4 <UART_SetConfig+0x170>)
 8003cce:	f852 f023 	ldr.w	pc, [r2, r3, lsl #2]
 8003cd2:	bf00      	nop
 8003cd4:	08003fb9 	.word	0x08003fb9
 8003cd8:	08003c85 	.word	0x08003c85
 8003cdc:	08003fe5 	.word	0x08003fe5
 8003ce0:	08003c85 	.word	0x08003c85
 8003ce4:	08003c85 	.word	0x08003c85
 8003ce8:	08003c85 	.word	0x08003c85
 8003cec:	08003fdb 	.word	0x08003fdb
 8003cf0:	08003c85 	.word	0x08003c85
 8003cf4:	08003c85 	.word	0x08003c85
 8003cf8:	08003c85 	.word	0x08003c85
 8003cfc:	08003c85 	.word	0x08003c85
 8003d00:	08003c85 	.word	0x08003c85
 8003d04:	08003c85 	.word	0x08003c85
 8003d08:	08003c85 	.word	0x08003c85
 8003d0c:	08003fc7 	.word	0x08003fc7
 8003d10:	08003c85 	.word	0x08003c85
 8003d14:	08003c85 	.word	0x08003c85
 8003d18:	08003c85 	.word	0x08003c85
 8003d1c:	08003c85 	.word	0x08003c85
 8003d20:	08003c85 	.word	0x08003c85
 8003d24:	08003c85 	.word	0x08003c85
 8003d28:	08003c85 	.word	0x08003c85
 8003d2c:	08003c85 	.word	0x08003c85
 8003d30:	08003c85 	.word	0x08003c85
 8003d34:	08003c85 	.word	0x08003c85
 8003d38:	08003c85 	.word	0x08003c85
 8003d3c:	08003c85 	.word	0x08003c85
 8003d40:	08003c85 	.word	0x08003c85
 8003d44:	08003c85 	.word	0x08003c85
 8003d48:	08003c85 	.word	0x08003c85
 8003d4c:	08003fef 	.word	0x08003fef
 8003d50:	4a46      	ldr	r2, [pc, #280]	; (8003e6c <UART_SetConfig+0x308>)
 8003d52:	f5b0 4f00 	cmp.w	r0, #32768	; 0x8000
 8003d56:	5cd3      	ldrb	r3, [r2, r3]
 8003d58:	f47f af66 	bne.w	8003c28 <UART_SetConfig+0xc4>
 8003d5c:	2b20      	cmp	r3, #32
 8003d5e:	f200 80ea 	bhi.w	8003f36 <UART_SetConfig+0x3d2>
 8003d62:	2b20      	cmp	r3, #32
 8003d64:	d88e      	bhi.n	8003c84 <UART_SetConfig+0x120>
 8003d66:	a201      	add	r2, pc, #4	; (adr r2, 8003d6c <UART_SetConfig+0x208>)
 8003d68:	f852 f023 	ldr.w	pc, [r2, r3, lsl #2]
 8003d6c:	08004001 	.word	0x08004001
 8003d70:	08003ff3 	.word	0x08003ff3
 8003d74:	08003c85 	.word	0x08003c85
 8003d78:	08003c85 	.word	0x08003c85
 8003d7c:	08004025 	.word	0x08004025
 8003d80:	08003c85 	.word	0x08003c85
 8003d84:	08003c85 	.word	0x08003c85
 8003d88:	08003c85 	.word	0x08003c85
 8003d8c:	0800401b 	.word	0x0800401b
 8003d90:	08003c85 	.word	0x08003c85
 8003d94:	08003c85 	.word	0x08003c85
 8003d98:	08003c85 	.word	0x08003c85
 8003d9c:	08003c85 	.word	0x08003c85
 8003da0:	08003c85 	.word	0x08003c85
 8003da4:	08003c85 	.word	0x08003c85
 8003da8:	08003c85 	.word	0x08003c85
 8003dac:	08004007 	.word	0x08004007
 8003db0:	08003c85 	.word	0x08003c85
 8003db4:	08003c85 	.word	0x08003c85
 8003db8:	08003c85 	.word	0x08003c85
 8003dbc:	08003c85 	.word	0x08003c85
 8003dc0:	08003c85 	.word	0x08003c85
 8003dc4:	08003c85 	.word	0x08003c85
 8003dc8:	08003c85 	.word	0x08003c85
 8003dcc:	08003c85 	.word	0x08003c85
 8003dd0:	08003c85 	.word	0x08003c85
 8003dd4:	08003c85 	.word	0x08003c85
 8003dd8:	08003c85 	.word	0x08003c85
 8003ddc:	08003c85 	.word	0x08003c85
 8003de0:	08003c85 	.word	0x08003c85
 8003de4:	08003c85 	.word	0x08003c85
 8003de8:	08003c85 	.word	0x08003c85
 8003dec:	0800402f 	.word	0x0800402f
 8003df0:	4b1a      	ldr	r3, [pc, #104]	; (8003e5c <UART_SetConfig+0x2f8>)
 8003df2:	6d5b      	ldr	r3, [r3, #84]	; 0x54
 8003df4:	f003 0307 	and.w	r3, r3, #7
 8003df8:	2b05      	cmp	r3, #5
 8003dfa:	f63f af43 	bhi.w	8003c84 <UART_SetConfig+0x120>
 8003dfe:	4a1c      	ldr	r2, [pc, #112]	; (8003e70 <UART_SetConfig+0x30c>)
 8003e00:	5cd3      	ldrb	r3, [r2, r3]
 8003e02:	e70d      	b.n	8003c20 <UART_SetConfig+0xbc>
 8003e04:	4b15      	ldr	r3, [pc, #84]	; (8003e5c <UART_SetConfig+0x2f8>)
 8003e06:	681a      	ldr	r2, [r3, #0]
 8003e08:	0692      	lsls	r2, r2, #26
 8003e0a:	f140 80c7 	bpl.w	8003f9c <UART_SetConfig+0x438>
 8003e0e:	681b      	ldr	r3, [r3, #0]
 8003e10:	4818      	ldr	r0, [pc, #96]	; (8003e74 <UART_SetConfig+0x310>)
 8003e12:	f3c3 03c1 	ubfx	r3, r3, #3, #2
 8003e16:	40d8      	lsrs	r0, r3
 8003e18:	e041      	b.n	8003e9e <UART_SetConfig+0x33a>
 8003e1a:	a803      	add	r0, sp, #12
 8003e1c:	f7ff f8e2 	bl	8002fe4 <HAL_RCCEx_GetPLL3ClockFreq>
 8003e20:	9804      	ldr	r0, [sp, #16]
 8003e22:	bb78      	cbnz	r0, 8003e84 <UART_SetConfig+0x320>
 8003e24:	2000      	movs	r0, #0
 8003e26:	e72e      	b.n	8003c86 <UART_SetConfig+0x122>
 8003e28:	cfff69f3 	.word	0xcfff69f3
 8003e2c:	58000c00 	.word	0x58000c00
 8003e30:	11fff4ff 	.word	0x11fff4ff
 8003e34:	40011000 	.word	0x40011000
 8003e38:	40004400 	.word	0x40004400
 8003e3c:	40004800 	.word	0x40004800
 8003e40:	40004c00 	.word	0x40004c00
 8003e44:	40005000 	.word	0x40005000
 8003e48:	40011400 	.word	0x40011400
 8003e4c:	40007800 	.word	0x40007800
 8003e50:	40007c00 	.word	0x40007c00
 8003e54:	40011800 	.word	0x40011800
 8003e58:	40011c00 	.word	0x40011c00
 8003e5c:	58024400 	.word	0x58024400
 8003e60:	08005b70 	.word	0x08005b70
 8003e64:	08005b70 	.word	0x08005b70
 8003e68:	08005ba4 	.word	0x08005ba4
 8003e6c:	08005b9c 	.word	0x08005b9c
 8003e70:	08005b9c 	.word	0x08005b9c
 8003e74:	03d09000 	.word	0x03d09000
 8003e78:	4668      	mov	r0, sp
 8003e7a:	f7ff f807 	bl	8002e8c <HAL_RCCEx_GetPLL2ClockFreq>
 8003e7e:	9801      	ldr	r0, [sp, #4]
 8003e80:	2800      	cmp	r0, #0
 8003e82:	d0cf      	beq.n	8003e24 <UART_SetConfig+0x2c0>
 8003e84:	6a65      	ldr	r5, [r4, #36]	; 0x24
 8003e86:	e00a      	b.n	8003e9e <UART_SetConfig+0x33a>
 8003e88:	f7fe f8ea 	bl	8002060 <HAL_RCC_GetPCLK2Freq>
 8003e8c:	e7c9      	b.n	8003e22 <UART_SetConfig+0x2be>
 8003e8e:	f7fe f89f 	bl	8001fd0 <HAL_RCC_GetPCLK1Freq>
 8003e92:	e7c6      	b.n	8003e22 <UART_SetConfig+0x2be>
 8003e94:	2b40      	cmp	r3, #64	; 0x40
 8003e96:	f47f aef5 	bne.w	8003c84 <UART_SetConfig+0x120>
 8003e9a:	f44f 4000 	mov.w	r0, #32768	; 0x8000
 8003e9e:	4b71      	ldr	r3, [pc, #452]	; (8004064 <UART_SetConfig+0x500>)
 8003ea0:	f64f 71ef 	movw	r1, #65519	; 0xffef
 8003ea4:	6862      	ldr	r2, [r4, #4]
 8003ea6:	f833 3015 	ldrh.w	r3, [r3, r5, lsl #1]
 8003eaa:	fbb0 f3f3 	udiv	r3, r0, r3
 8003eae:	eb03 0352 	add.w	r3, r3, r2, lsr #1
 8003eb2:	fbb3 f3f2 	udiv	r3, r3, r2
 8003eb6:	f1a3 0210 	sub.w	r2, r3, #16
 8003eba:	428a      	cmp	r2, r1
 8003ebc:	f63f aee2 	bhi.w	8003c84 <UART_SetConfig+0x120>
 8003ec0:	6822      	ldr	r2, [r4, #0]
 8003ec2:	2000      	movs	r0, #0
 8003ec4:	60d3      	str	r3, [r2, #12]
 8003ec6:	e6de      	b.n	8003c86 <UART_SetConfig+0x122>
 8003ec8:	2b40      	cmp	r3, #64	; 0x40
 8003eca:	f47f aedb 	bne.w	8003c84 <UART_SetConfig+0x120>
 8003ece:	f44f 4000 	mov.w	r0, #32768	; 0x8000
 8003ed2:	4b64      	ldr	r3, [pc, #400]	; (8004064 <UART_SetConfig+0x500>)
 8003ed4:	6865      	ldr	r5, [r4, #4]
 8003ed6:	f833 2011 	ldrh.w	r2, [r3, r1, lsl #1]
 8003eda:	eb05 0145 	add.w	r1, r5, r5, lsl #1
 8003ede:	fbb0 f3f2 	udiv	r3, r0, r2
 8003ee2:	4299      	cmp	r1, r3
 8003ee4:	f63f aece 	bhi.w	8003c84 <UART_SetConfig+0x120>
 8003ee8:	ebb3 3f05 	cmp.w	r3, r5, lsl #12
 8003eec:	f63f aeca 	bhi.w	8003c84 <UART_SetConfig+0x120>
 8003ef0:	2300      	movs	r3, #0
 8003ef2:	4619      	mov	r1, r3
 8003ef4:	f7fc f9fc 	bl	80002f0 <__aeabi_uldivmod>
 8003ef8:	462a      	mov	r2, r5
 8003efa:	0209      	lsls	r1, r1, #8
 8003efc:	0203      	lsls	r3, r0, #8
 8003efe:	ea41 6110 	orr.w	r1, r1, r0, lsr #24
 8003f02:	0868      	lsrs	r0, r5, #1
 8003f04:	1818      	adds	r0, r3, r0
 8003f06:	f04f 0300 	mov.w	r3, #0
 8003f0a:	f141 0100 	adc.w	r1, r1, #0
 8003f0e:	f7fc f9ef 	bl	80002f0 <__aeabi_uldivmod>
 8003f12:	4a55      	ldr	r2, [pc, #340]	; (8004068 <UART_SetConfig+0x504>)
 8003f14:	f5a0 7140 	sub.w	r1, r0, #768	; 0x300
 8003f18:	4603      	mov	r3, r0
 8003f1a:	4291      	cmp	r1, r2
 8003f1c:	f63f aeb2 	bhi.w	8003c84 <UART_SetConfig+0x120>
 8003f20:	e7ce      	b.n	8003ec0 <UART_SetConfig+0x35c>
 8003f22:	4b52      	ldr	r3, [pc, #328]	; (800406c <UART_SetConfig+0x508>)
 8003f24:	6d5b      	ldr	r3, [r3, #84]	; 0x54
 8003f26:	f003 0307 	and.w	r3, r3, #7
 8003f2a:	2b05      	cmp	r3, #5
 8003f2c:	f63f aeaa 	bhi.w	8003c84 <UART_SetConfig+0x120>
 8003f30:	4a4f      	ldr	r2, [pc, #316]	; (8004070 <UART_SetConfig+0x50c>)
 8003f32:	5cd3      	ldrb	r3, [r2, r3]
 8003f34:	e674      	b.n	8003c20 <UART_SetConfig+0xbc>
 8003f36:	2b40      	cmp	r3, #64	; 0x40
 8003f38:	f47f aea4 	bne.w	8003c84 <UART_SetConfig+0x120>
 8003f3c:	4b49      	ldr	r3, [pc, #292]	; (8004064 <UART_SetConfig+0x500>)
 8003f3e:	6862      	ldr	r2, [r4, #4]
 8003f40:	f833 1015 	ldrh.w	r1, [r3, r5, lsl #1]
 8003f44:	0853      	lsrs	r3, r2, #1
 8003f46:	fbb0 f0f1 	udiv	r0, r0, r1
 8003f4a:	eb03 0340 	add.w	r3, r3, r0, lsl #1
 8003f4e:	f64f 71ef 	movw	r1, #65519	; 0xffef
 8003f52:	fbb3 f3f2 	udiv	r3, r3, r2
 8003f56:	f1a3 0210 	sub.w	r2, r3, #16
 8003f5a:	428a      	cmp	r2, r1
 8003f5c:	f63f ae92 	bhi.w	8003c84 <UART_SetConfig+0x120>
 8003f60:	f023 020f 	bic.w	r2, r3, #15
 8003f64:	f3c3 0342 	ubfx	r3, r3, #1, #3
 8003f68:	6821      	ldr	r1, [r4, #0]
 8003f6a:	2000      	movs	r0, #0
 8003f6c:	b292      	uxth	r2, r2
 8003f6e:	4313      	orrs	r3, r2
 8003f70:	60cb      	str	r3, [r1, #12]
 8003f72:	e688      	b.n	8003c86 <UART_SetConfig+0x122>
 8003f74:	4b3d      	ldr	r3, [pc, #244]	; (800406c <UART_SetConfig+0x508>)
 8003f76:	6d5b      	ldr	r3, [r3, #84]	; 0x54
 8003f78:	f003 0307 	and.w	r3, r3, #7
 8003f7c:	2b05      	cmp	r3, #5
 8003f7e:	f63f ae81 	bhi.w	8003c84 <UART_SetConfig+0x120>
 8003f82:	4a3c      	ldr	r2, [pc, #240]	; (8004074 <UART_SetConfig+0x510>)
 8003f84:	5cd3      	ldrb	r3, [r2, r3]
 8003f86:	e64b      	b.n	8003c20 <UART_SetConfig+0xbc>
 8003f88:	4b38      	ldr	r3, [pc, #224]	; (800406c <UART_SetConfig+0x508>)
 8003f8a:	6d5b      	ldr	r3, [r3, #84]	; 0x54
 8003f8c:	f003 0338 	and.w	r3, r3, #56	; 0x38
 8003f90:	2b28      	cmp	r3, #40	; 0x28
 8003f92:	f63f ae77 	bhi.w	8003c84 <UART_SetConfig+0x120>
 8003f96:	4a38      	ldr	r2, [pc, #224]	; (8004078 <UART_SetConfig+0x514>)
 8003f98:	5cd3      	ldrb	r3, [r2, r3]
 8003f9a:	e641      	b.n	8003c20 <UART_SetConfig+0xbc>
 8003f9c:	4837      	ldr	r0, [pc, #220]	; (800407c <UART_SetConfig+0x518>)
 8003f9e:	e77e      	b.n	8003e9e <UART_SetConfig+0x33a>
 8003fa0:	4b32      	ldr	r3, [pc, #200]	; (800406c <UART_SetConfig+0x508>)
 8003fa2:	6d5b      	ldr	r3, [r3, #84]	; 0x54
 8003fa4:	f003 0307 	and.w	r3, r3, #7
 8003fa8:	2b05      	cmp	r3, #5
 8003faa:	f63f ae6b 	bhi.w	8003c84 <UART_SetConfig+0x120>
 8003fae:	4a34      	ldr	r2, [pc, #208]	; (8004080 <UART_SetConfig+0x51c>)
 8003fb0:	5cd3      	ldrb	r3, [r2, r3]
 8003fb2:	e635      	b.n	8003c20 <UART_SetConfig+0xbc>
 8003fb4:	4833      	ldr	r0, [pc, #204]	; (8004084 <UART_SetConfig+0x520>)
 8003fb6:	e772      	b.n	8003e9e <UART_SetConfig+0x33a>
 8003fb8:	f7fe ff56 	bl	8002e68 <HAL_RCCEx_GetD3PCLK1Freq>
 8003fbc:	2800      	cmp	r0, #0
 8003fbe:	f43f af31 	beq.w	8003e24 <UART_SetConfig+0x2c0>
 8003fc2:	6a61      	ldr	r1, [r4, #36]	; 0x24
 8003fc4:	e785      	b.n	8003ed2 <UART_SetConfig+0x36e>
 8003fc6:	4b29      	ldr	r3, [pc, #164]	; (800406c <UART_SetConfig+0x508>)
 8003fc8:	681a      	ldr	r2, [r3, #0]
 8003fca:	0690      	lsls	r0, r2, #26
 8003fcc:	d53b      	bpl.n	8004046 <UART_SetConfig+0x4e2>
 8003fce:	681b      	ldr	r3, [r3, #0]
 8003fd0:	482a      	ldr	r0, [pc, #168]	; (800407c <UART_SetConfig+0x518>)
 8003fd2:	f3c3 03c1 	ubfx	r3, r3, #3, #2
 8003fd6:	40d8      	lsrs	r0, r3
 8003fd8:	e77b      	b.n	8003ed2 <UART_SetConfig+0x36e>
 8003fda:	a803      	add	r0, sp, #12
 8003fdc:	f7ff f802 	bl	8002fe4 <HAL_RCCEx_GetPLL3ClockFreq>
 8003fe0:	9804      	ldr	r0, [sp, #16]
 8003fe2:	e7eb      	b.n	8003fbc <UART_SetConfig+0x458>
 8003fe4:	4668      	mov	r0, sp
 8003fe6:	f7fe ff51 	bl	8002e8c <HAL_RCCEx_GetPLL2ClockFreq>
 8003fea:	9801      	ldr	r0, [sp, #4]
 8003fec:	e7e6      	b.n	8003fbc <UART_SetConfig+0x458>
 8003fee:	4825      	ldr	r0, [pc, #148]	; (8004084 <UART_SetConfig+0x520>)
 8003ff0:	e76f      	b.n	8003ed2 <UART_SetConfig+0x36e>
 8003ff2:	f7fe f835 	bl	8002060 <HAL_RCC_GetPCLK2Freq>
 8003ff6:	2800      	cmp	r0, #0
 8003ff8:	f43f af14 	beq.w	8003e24 <UART_SetConfig+0x2c0>
 8003ffc:	6a65      	ldr	r5, [r4, #36]	; 0x24
 8003ffe:	e79d      	b.n	8003f3c <UART_SetConfig+0x3d8>
 8004000:	f7fd ffe6 	bl	8001fd0 <HAL_RCC_GetPCLK1Freq>
 8004004:	e7f7      	b.n	8003ff6 <UART_SetConfig+0x492>
 8004006:	4b19      	ldr	r3, [pc, #100]	; (800406c <UART_SetConfig+0x508>)
 8004008:	681a      	ldr	r2, [r3, #0]
 800400a:	0691      	lsls	r1, r2, #26
 800400c:	d527      	bpl.n	800405e <UART_SetConfig+0x4fa>
 800400e:	681b      	ldr	r3, [r3, #0]
 8004010:	481a      	ldr	r0, [pc, #104]	; (800407c <UART_SetConfig+0x518>)
 8004012:	f3c3 03c1 	ubfx	r3, r3, #3, #2
 8004016:	40d8      	lsrs	r0, r3
 8004018:	e790      	b.n	8003f3c <UART_SetConfig+0x3d8>
 800401a:	a803      	add	r0, sp, #12
 800401c:	f7fe ffe2 	bl	8002fe4 <HAL_RCCEx_GetPLL3ClockFreq>
 8004020:	9804      	ldr	r0, [sp, #16]
 8004022:	e7e8      	b.n	8003ff6 <UART_SetConfig+0x492>
 8004024:	4668      	mov	r0, sp
 8004026:	f7fe ff31 	bl	8002e8c <HAL_RCCEx_GetPLL2ClockFreq>
 800402a:	9801      	ldr	r0, [sp, #4]
 800402c:	e7e3      	b.n	8003ff6 <UART_SetConfig+0x492>
 800402e:	4815      	ldr	r0, [pc, #84]	; (8004084 <UART_SetConfig+0x520>)
 8004030:	e784      	b.n	8003f3c <UART_SetConfig+0x3d8>
 8004032:	4b0e      	ldr	r3, [pc, #56]	; (800406c <UART_SetConfig+0x508>)
 8004034:	6d5b      	ldr	r3, [r3, #84]	; 0x54
 8004036:	f003 0307 	and.w	r3, r3, #7
 800403a:	2b05      	cmp	r3, #5
 800403c:	f63f ae22 	bhi.w	8003c84 <UART_SetConfig+0x120>
 8004040:	4a11      	ldr	r2, [pc, #68]	; (8004088 <UART_SetConfig+0x524>)
 8004042:	5cd3      	ldrb	r3, [r2, r3]
 8004044:	e5ec      	b.n	8003c20 <UART_SetConfig+0xbc>
 8004046:	480d      	ldr	r0, [pc, #52]	; (800407c <UART_SetConfig+0x518>)
 8004048:	e743      	b.n	8003ed2 <UART_SetConfig+0x36e>
 800404a:	4b08      	ldr	r3, [pc, #32]	; (800406c <UART_SetConfig+0x508>)
 800404c:	6d5b      	ldr	r3, [r3, #84]	; 0x54
 800404e:	f003 0338 	and.w	r3, r3, #56	; 0x38
 8004052:	2b28      	cmp	r3, #40	; 0x28
 8004054:	f63f ae16 	bhi.w	8003c84 <UART_SetConfig+0x120>
 8004058:	4a0c      	ldr	r2, [pc, #48]	; (800408c <UART_SetConfig+0x528>)
 800405a:	5cd3      	ldrb	r3, [r2, r3]
 800405c:	e5e0      	b.n	8003c20 <UART_SetConfig+0xbc>
 800405e:	4807      	ldr	r0, [pc, #28]	; (800407c <UART_SetConfig+0x518>)
 8004060:	e76c      	b.n	8003f3c <UART_SetConfig+0x3d8>
 8004062:	bf00      	nop
 8004064:	08005bac 	.word	0x08005bac
 8004068:	000ffcff 	.word	0x000ffcff
 800406c:	58024400 	.word	0x58024400
 8004070:	08005b9c 	.word	0x08005b9c
 8004074:	08005b9c 	.word	0x08005b9c
 8004078:	08005b70 	.word	0x08005b70
 800407c:	03d09000 	.word	0x03d09000
 8004080:	08005b9c 	.word	0x08005b9c
 8004084:	003d0900 	.word	0x003d0900
 8004088:	08005b9c 	.word	0x08005b9c
 800408c:	08005b70 	.word	0x08005b70

08004090 <UART_AdvFeatureConfig>:
 8004090:	6a83      	ldr	r3, [r0, #40]	; 0x28
 8004092:	07da      	lsls	r2, r3, #31
 8004094:	b410      	push	{r4}
 8004096:	d506      	bpl.n	80040a6 <UART_AdvFeatureConfig+0x16>
 8004098:	6801      	ldr	r1, [r0, #0]
 800409a:	6ac4      	ldr	r4, [r0, #44]	; 0x2c
 800409c:	684a      	ldr	r2, [r1, #4]
 800409e:	f422 3200 	bic.w	r2, r2, #131072	; 0x20000
 80040a2:	4322      	orrs	r2, r4
 80040a4:	604a      	str	r2, [r1, #4]
 80040a6:	079c      	lsls	r4, r3, #30
 80040a8:	d506      	bpl.n	80040b8 <UART_AdvFeatureConfig+0x28>
 80040aa:	6801      	ldr	r1, [r0, #0]
 80040ac:	6b04      	ldr	r4, [r0, #48]	; 0x30
 80040ae:	684a      	ldr	r2, [r1, #4]
 80040b0:	f422 3280 	bic.w	r2, r2, #65536	; 0x10000
 80040b4:	4322      	orrs	r2, r4
 80040b6:	604a      	str	r2, [r1, #4]
 80040b8:	0759      	lsls	r1, r3, #29
 80040ba:	d506      	bpl.n	80040ca <UART_AdvFeatureConfig+0x3a>
 80040bc:	6801      	ldr	r1, [r0, #0]
 80040be:	6b44      	ldr	r4, [r0, #52]	; 0x34
 80040c0:	684a      	ldr	r2, [r1, #4]
 80040c2:	f422 2280 	bic.w	r2, r2, #262144	; 0x40000
 80040c6:	4322      	orrs	r2, r4
 80040c8:	604a      	str	r2, [r1, #4]
 80040ca:	071a      	lsls	r2, r3, #28
 80040cc:	d506      	bpl.n	80040dc <UART_AdvFeatureConfig+0x4c>
 80040ce:	6801      	ldr	r1, [r0, #0]
 80040d0:	6b84      	ldr	r4, [r0, #56]	; 0x38
 80040d2:	684a      	ldr	r2, [r1, #4]
 80040d4:	f422 4200 	bic.w	r2, r2, #32768	; 0x8000
 80040d8:	4322      	orrs	r2, r4
 80040da:	604a      	str	r2, [r1, #4]
 80040dc:	06dc      	lsls	r4, r3, #27
 80040de:	d506      	bpl.n	80040ee <UART_AdvFeatureConfig+0x5e>
 80040e0:	6801      	ldr	r1, [r0, #0]
 80040e2:	6bc4      	ldr	r4, [r0, #60]	; 0x3c
 80040e4:	688a      	ldr	r2, [r1, #8]
 80040e6:	f422 5280 	bic.w	r2, r2, #4096	; 0x1000
 80040ea:	4322      	orrs	r2, r4
 80040ec:	608a      	str	r2, [r1, #8]
 80040ee:	0699      	lsls	r1, r3, #26
 80040f0:	d506      	bpl.n	8004100 <UART_AdvFeatureConfig+0x70>
 80040f2:	6801      	ldr	r1, [r0, #0]
 80040f4:	6c04      	ldr	r4, [r0, #64]	; 0x40
 80040f6:	688a      	ldr	r2, [r1, #8]
 80040f8:	f422 5200 	bic.w	r2, r2, #8192	; 0x2000
 80040fc:	4322      	orrs	r2, r4
 80040fe:	608a      	str	r2, [r1, #8]
 8004100:	065a      	lsls	r2, r3, #25
 8004102:	d50a      	bpl.n	800411a <UART_AdvFeatureConfig+0x8a>
 8004104:	6801      	ldr	r1, [r0, #0]
 8004106:	6c44      	ldr	r4, [r0, #68]	; 0x44
 8004108:	684a      	ldr	r2, [r1, #4]
 800410a:	f5b4 1f80 	cmp.w	r4, #1048576	; 0x100000
 800410e:	f422 1280 	bic.w	r2, r2, #1048576	; 0x100000
 8004112:	ea42 0204 	orr.w	r2, r2, r4
 8004116:	604a      	str	r2, [r1, #4]
 8004118:	d00b      	beq.n	8004132 <UART_AdvFeatureConfig+0xa2>
 800411a:	061b      	lsls	r3, r3, #24
 800411c:	d506      	bpl.n	800412c <UART_AdvFeatureConfig+0x9c>
 800411e:	6802      	ldr	r2, [r0, #0]
 8004120:	6cc1      	ldr	r1, [r0, #76]	; 0x4c
 8004122:	6853      	ldr	r3, [r2, #4]
 8004124:	f423 2300 	bic.w	r3, r3, #524288	; 0x80000
 8004128:	430b      	orrs	r3, r1
 800412a:	6053      	str	r3, [r2, #4]
 800412c:	f85d 4b04 	ldr.w	r4, [sp], #4
 8004130:	4770      	bx	lr
 8004132:	684a      	ldr	r2, [r1, #4]
 8004134:	6c84      	ldr	r4, [r0, #72]	; 0x48
 8004136:	f422 02c0 	bic.w	r2, r2, #6291456	; 0x600000
 800413a:	4322      	orrs	r2, r4
 800413c:	604a      	str	r2, [r1, #4]
 800413e:	e7ec      	b.n	800411a <UART_AdvFeatureConfig+0x8a>

08004140 <UART_CheckIdleState>:
 8004140:	b538      	push	{r3, r4, r5, lr}
 8004142:	2300      	movs	r3, #0
 8004144:	4604      	mov	r4, r0
 8004146:	f8c0 3090 	str.w	r3, [r0, #144]	; 0x90
 800414a:	f7fc fda1 	bl	8000c90 <HAL_GetTick>
 800414e:	6822      	ldr	r2, [r4, #0]
 8004150:	4605      	mov	r5, r0
 8004152:	6813      	ldr	r3, [r2, #0]
 8004154:	071b      	lsls	r3, r3, #28
 8004156:	d40f      	bmi.n	8004178 <UART_CheckIdleState+0x38>
 8004158:	6813      	ldr	r3, [r2, #0]
 800415a:	0759      	lsls	r1, r3, #29
 800415c:	d431      	bmi.n	80041c2 <UART_CheckIdleState+0x82>
 800415e:	2300      	movs	r3, #0
 8004160:	2220      	movs	r2, #32
 8004162:	4618      	mov	r0, r3
 8004164:	f8c4 2088 	str.w	r2, [r4, #136]	; 0x88
 8004168:	f8c4 208c 	str.w	r2, [r4, #140]	; 0x8c
 800416c:	66e3      	str	r3, [r4, #108]	; 0x6c
 800416e:	6723      	str	r3, [r4, #112]	; 0x70
 8004170:	2300      	movs	r3, #0
 8004172:	f884 3084 	strb.w	r3, [r4, #132]	; 0x84
 8004176:	bd38      	pop	{r3, r4, r5, pc}
 8004178:	69d3      	ldr	r3, [r2, #28]
 800417a:	0298      	lsls	r0, r3, #10
 800417c:	d4ec      	bmi.n	8004158 <UART_CheckIdleState+0x18>
 800417e:	e00c      	b.n	800419a <UART_CheckIdleState+0x5a>
 8004180:	6819      	ldr	r1, [r3, #0]
 8004182:	461a      	mov	r2, r3
 8004184:	0749      	lsls	r1, r1, #29
 8004186:	d505      	bpl.n	8004194 <UART_CheckIdleState+0x54>
 8004188:	69d9      	ldr	r1, [r3, #28]
 800418a:	0708      	lsls	r0, r1, #28
 800418c:	d44b      	bmi.n	8004226 <UART_CheckIdleState+0xe6>
 800418e:	69d9      	ldr	r1, [r3, #28]
 8004190:	0509      	lsls	r1, r1, #20
 8004192:	d476      	bmi.n	8004282 <UART_CheckIdleState+0x142>
 8004194:	69db      	ldr	r3, [r3, #28]
 8004196:	0298      	lsls	r0, r3, #10
 8004198:	d4de      	bmi.n	8004158 <UART_CheckIdleState+0x18>
 800419a:	f7fc fd79 	bl	8000c90 <HAL_GetTick>
 800419e:	1b43      	subs	r3, r0, r5
 80041a0:	f1b3 7f00 	cmp.w	r3, #33554432	; 0x2000000
 80041a4:	6823      	ldr	r3, [r4, #0]
 80041a6:	d3eb      	bcc.n	8004180 <UART_CheckIdleState+0x40>
 80041a8:	e853 2f00 	ldrex	r2, [r3]
 80041ac:	f022 0280 	bic.w	r2, r2, #128	; 0x80
 80041b0:	e843 2100 	strex	r1, r2, [r3]
 80041b4:	2900      	cmp	r1, #0
 80041b6:	d1f7      	bne.n	80041a8 <UART_CheckIdleState+0x68>
 80041b8:	2320      	movs	r3, #32
 80041ba:	2003      	movs	r0, #3
 80041bc:	f8c4 3088 	str.w	r3, [r4, #136]	; 0x88
 80041c0:	e7d6      	b.n	8004170 <UART_CheckIdleState+0x30>
 80041c2:	69d3      	ldr	r3, [r2, #28]
 80041c4:	025b      	lsls	r3, r3, #9
 80041c6:	d4ca      	bmi.n	800415e <UART_CheckIdleState+0x1e>
 80041c8:	e00d      	b.n	80041e6 <UART_CheckIdleState+0xa6>
 80041ca:	681a      	ldr	r2, [r3, #0]
 80041cc:	0750      	lsls	r0, r2, #29
 80041ce:	d507      	bpl.n	80041e0 <UART_CheckIdleState+0xa0>
 80041d0:	69da      	ldr	r2, [r3, #28]
 80041d2:	0711      	lsls	r1, r2, #28
 80041d4:	f100 8083 	bmi.w	80042de <UART_CheckIdleState+0x19e>
 80041d8:	69da      	ldr	r2, [r3, #28]
 80041da:	0512      	lsls	r2, r2, #20
 80041dc:	f100 80ad 	bmi.w	800433a <UART_CheckIdleState+0x1fa>
 80041e0:	69db      	ldr	r3, [r3, #28]
 80041e2:	025b      	lsls	r3, r3, #9
 80041e4:	d4bb      	bmi.n	800415e <UART_CheckIdleState+0x1e>
 80041e6:	f7fc fd53 	bl	8000c90 <HAL_GetTick>
 80041ea:	1b43      	subs	r3, r0, r5
 80041ec:	f1b3 7f00 	cmp.w	r3, #33554432	; 0x2000000
 80041f0:	6823      	ldr	r3, [r4, #0]
 80041f2:	d3ea      	bcc.n	80041ca <UART_CheckIdleState+0x8a>
 80041f4:	e853 2f00 	ldrex	r2, [r3]
 80041f8:	f422 7290 	bic.w	r2, r2, #288	; 0x120
 80041fc:	e843 2100 	strex	r1, r2, [r3]
 8004200:	2900      	cmp	r1, #0
 8004202:	d1f7      	bne.n	80041f4 <UART_CheckIdleState+0xb4>
 8004204:	f103 0208 	add.w	r2, r3, #8
 8004208:	e852 2f00 	ldrex	r2, [r2]
 800420c:	f022 0201 	bic.w	r2, r2, #1
 8004210:	f103 0008 	add.w	r0, r3, #8
 8004214:	e840 2100 	strex	r1, r2, [r0]
 8004218:	2900      	cmp	r1, #0
 800421a:	d1f3      	bne.n	8004204 <UART_CheckIdleState+0xc4>
 800421c:	2320      	movs	r3, #32
 800421e:	2003      	movs	r0, #3
 8004220:	f8c4 308c 	str.w	r3, [r4, #140]	; 0x8c
 8004224:	e7a4      	b.n	8004170 <UART_CheckIdleState+0x30>
 8004226:	2208      	movs	r2, #8
 8004228:	621a      	str	r2, [r3, #32]
 800422a:	e853 2f00 	ldrex	r2, [r3]
 800422e:	f422 7290 	bic.w	r2, r2, #288	; 0x120
 8004232:	e843 2100 	strex	r1, r2, [r3]
 8004236:	2900      	cmp	r1, #0
 8004238:	d1f7      	bne.n	800422a <UART_CheckIdleState+0xea>
 800423a:	4857      	ldr	r0, [pc, #348]	; (8004398 <UART_CheckIdleState+0x258>)
 800423c:	f103 0208 	add.w	r2, r3, #8
 8004240:	e852 2f00 	ldrex	r2, [r2]
 8004244:	4002      	ands	r2, r0
 8004246:	f103 0508 	add.w	r5, r3, #8
 800424a:	e845 2100 	strex	r1, r2, [r5]
 800424e:	2900      	cmp	r1, #0
 8004250:	d1f4      	bne.n	800423c <UART_CheckIdleState+0xfc>
 8004252:	6ee2      	ldr	r2, [r4, #108]	; 0x6c
 8004254:	2a01      	cmp	r2, #1
 8004256:	d00b      	beq.n	8004270 <UART_CheckIdleState+0x130>
 8004258:	2200      	movs	r2, #0
 800425a:	2020      	movs	r0, #32
 800425c:	2108      	movs	r1, #8
 800425e:	f8c4 008c 	str.w	r0, [r4, #140]	; 0x8c
 8004262:	6762      	str	r2, [r4, #116]	; 0x74
 8004264:	66e2      	str	r2, [r4, #108]	; 0x6c
 8004266:	f884 2084 	strb.w	r2, [r4, #132]	; 0x84
 800426a:	f8c4 1090 	str.w	r1, [r4, #144]	; 0x90
 800426e:	e79b      	b.n	80041a8 <UART_CheckIdleState+0x68>
 8004270:	e853 2f00 	ldrex	r2, [r3]
 8004274:	f022 0210 	bic.w	r2, r2, #16
 8004278:	e843 2100 	strex	r1, r2, [r3]
 800427c:	2900      	cmp	r1, #0
 800427e:	d1f7      	bne.n	8004270 <UART_CheckIdleState+0x130>
 8004280:	e7ea      	b.n	8004258 <UART_CheckIdleState+0x118>
 8004282:	f44f 6200 	mov.w	r2, #2048	; 0x800
 8004286:	621a      	str	r2, [r3, #32]
 8004288:	e853 2f00 	ldrex	r2, [r3]
 800428c:	f422 7290 	bic.w	r2, r2, #288	; 0x120
 8004290:	e843 2100 	strex	r1, r2, [r3]
 8004294:	2900      	cmp	r1, #0
 8004296:	d1f7      	bne.n	8004288 <UART_CheckIdleState+0x148>
 8004298:	483f      	ldr	r0, [pc, #252]	; (8004398 <UART_CheckIdleState+0x258>)
 800429a:	f103 0208 	add.w	r2, r3, #8
 800429e:	e852 2f00 	ldrex	r2, [r2]
 80042a2:	4002      	ands	r2, r0
 80042a4:	f103 0508 	add.w	r5, r3, #8
 80042a8:	e845 2100 	strex	r1, r2, [r5]
 80042ac:	2900      	cmp	r1, #0
 80042ae:	d1f4      	bne.n	800429a <UART_CheckIdleState+0x15a>
 80042b0:	6ee2      	ldr	r2, [r4, #108]	; 0x6c
 80042b2:	2a01      	cmp	r2, #1
 80042b4:	d00a      	beq.n	80042cc <UART_CheckIdleState+0x18c>
 80042b6:	2200      	movs	r2, #0
 80042b8:	2120      	movs	r1, #32
 80042ba:	6762      	str	r2, [r4, #116]	; 0x74
 80042bc:	f8c4 108c 	str.w	r1, [r4, #140]	; 0x8c
 80042c0:	f884 2084 	strb.w	r2, [r4, #132]	; 0x84
 80042c4:	66e2      	str	r2, [r4, #108]	; 0x6c
 80042c6:	f8c4 1090 	str.w	r1, [r4, #144]	; 0x90
 80042ca:	e76d      	b.n	80041a8 <UART_CheckIdleState+0x68>
 80042cc:	e853 2f00 	ldrex	r2, [r3]
 80042d0:	f022 0210 	bic.w	r2, r2, #16
 80042d4:	e843 2100 	strex	r1, r2, [r3]
 80042d8:	2900      	cmp	r1, #0
 80042da:	d1f7      	bne.n	80042cc <UART_CheckIdleState+0x18c>
 80042dc:	e7eb      	b.n	80042b6 <UART_CheckIdleState+0x176>
 80042de:	2208      	movs	r2, #8
 80042e0:	621a      	str	r2, [r3, #32]
 80042e2:	e853 2f00 	ldrex	r2, [r3]
 80042e6:	f422 7290 	bic.w	r2, r2, #288	; 0x120
 80042ea:	e843 2100 	strex	r1, r2, [r3]
 80042ee:	2900      	cmp	r1, #0
 80042f0:	d1f7      	bne.n	80042e2 <UART_CheckIdleState+0x1a2>
 80042f2:	4829      	ldr	r0, [pc, #164]	; (8004398 <UART_CheckIdleState+0x258>)
 80042f4:	f103 0208 	add.w	r2, r3, #8
 80042f8:	e852 2f00 	ldrex	r2, [r2]
 80042fc:	4002      	ands	r2, r0
 80042fe:	f103 0508 	add.w	r5, r3, #8
 8004302:	e845 2100 	strex	r1, r2, [r5]
 8004306:	2900      	cmp	r1, #0
 8004308:	d1f4      	bne.n	80042f4 <UART_CheckIdleState+0x1b4>
 800430a:	6ee2      	ldr	r2, [r4, #108]	; 0x6c
 800430c:	2a01      	cmp	r2, #1
 800430e:	d00b      	beq.n	8004328 <UART_CheckIdleState+0x1e8>
 8004310:	2200      	movs	r2, #0
 8004312:	2020      	movs	r0, #32
 8004314:	2108      	movs	r1, #8
 8004316:	f8c4 008c 	str.w	r0, [r4, #140]	; 0x8c
 800431a:	6762      	str	r2, [r4, #116]	; 0x74
 800431c:	66e2      	str	r2, [r4, #108]	; 0x6c
 800431e:	f884 2084 	strb.w	r2, [r4, #132]	; 0x84
 8004322:	f8c4 1090 	str.w	r1, [r4, #144]	; 0x90
 8004326:	e765      	b.n	80041f4 <UART_CheckIdleState+0xb4>
 8004328:	e853 2f00 	ldrex	r2, [r3]
 800432c:	f022 0210 	bic.w	r2, r2, #16
 8004330:	e843 2100 	strex	r1, r2, [r3]
 8004334:	2900      	cmp	r1, #0
 8004336:	d1f7      	bne.n	8004328 <UART_CheckIdleState+0x1e8>
 8004338:	e7ea      	b.n	8004310 <UART_CheckIdleState+0x1d0>
 800433a:	f44f 6200 	mov.w	r2, #2048	; 0x800
 800433e:	621a      	str	r2, [r3, #32]
 8004340:	e853 2f00 	ldrex	r2, [r3]
 8004344:	f422 7290 	bic.w	r2, r2, #288	; 0x120
 8004348:	e843 2100 	strex	r1, r2, [r3]
 800434c:	2900      	cmp	r1, #0
 800434e:	d1f7      	bne.n	8004340 <UART_CheckIdleState+0x200>
 8004350:	4811      	ldr	r0, [pc, #68]	; (8004398 <UART_CheckIdleState+0x258>)
 8004352:	f103 0208 	add.w	r2, r3, #8
 8004356:	e852 2f00 	ldrex	r2, [r2]
 800435a:	4002      	ands	r2, r0
 800435c:	f103 0508 	add.w	r5, r3, #8
 8004360:	e845 2100 	strex	r1, r2, [r5]
 8004364:	2900      	cmp	r1, #0
 8004366:	d1f4      	bne.n	8004352 <UART_CheckIdleState+0x212>
 8004368:	6ee2      	ldr	r2, [r4, #108]	; 0x6c
 800436a:	2a01      	cmp	r2, #1
 800436c:	d00a      	beq.n	8004384 <UART_CheckIdleState+0x244>
 800436e:	2200      	movs	r2, #0
 8004370:	2120      	movs	r1, #32
 8004372:	6762      	str	r2, [r4, #116]	; 0x74
 8004374:	f8c4 108c 	str.w	r1, [r4, #140]	; 0x8c
 8004378:	f884 2084 	strb.w	r2, [r4, #132]	; 0x84
 800437c:	66e2      	str	r2, [r4, #108]	; 0x6c
 800437e:	f8c4 1090 	str.w	r1, [r4, #144]	; 0x90
 8004382:	e737      	b.n	80041f4 <UART_CheckIdleState+0xb4>
 8004384:	e853 2f00 	ldrex	r2, [r3]
 8004388:	f022 0210 	bic.w	r2, r2, #16
 800438c:	e843 2100 	strex	r1, r2, [r3]
 8004390:	2900      	cmp	r1, #0
 8004392:	d1f7      	bne.n	8004384 <UART_CheckIdleState+0x244>
 8004394:	e7eb      	b.n	800436e <UART_CheckIdleState+0x22e>
 8004396:	bf00      	nop
 8004398:	effffffe 	.word	0xeffffffe

0800439c <HAL_UART_Init>:
 800439c:	b380      	cbz	r0, 8004400 <HAL_UART_Init+0x64>
 800439e:	f8d0 3088 	ldr.w	r3, [r0, #136]	; 0x88
 80043a2:	b510      	push	{r4, lr}
 80043a4:	4604      	mov	r4, r0
 80043a6:	b333      	cbz	r3, 80043f6 <HAL_UART_Init+0x5a>
 80043a8:	6822      	ldr	r2, [r4, #0]
 80043aa:	2324      	movs	r3, #36	; 0x24
 80043ac:	4620      	mov	r0, r4
 80043ae:	f8c4 3088 	str.w	r3, [r4, #136]	; 0x88
 80043b2:	6813      	ldr	r3, [r2, #0]
 80043b4:	f023 0301 	bic.w	r3, r3, #1
 80043b8:	6013      	str	r3, [r2, #0]
 80043ba:	f7ff fbd3 	bl	8003b64 <UART_SetConfig>
 80043be:	2801      	cmp	r0, #1
 80043c0:	d017      	beq.n	80043f2 <HAL_UART_Init+0x56>
 80043c2:	6aa3      	ldr	r3, [r4, #40]	; 0x28
 80043c4:	b98b      	cbnz	r3, 80043ea <HAL_UART_Init+0x4e>
 80043c6:	6823      	ldr	r3, [r4, #0]
 80043c8:	4620      	mov	r0, r4
 80043ca:	685a      	ldr	r2, [r3, #4]
 80043cc:	f422 4290 	bic.w	r2, r2, #18432	; 0x4800
 80043d0:	605a      	str	r2, [r3, #4]
 80043d2:	689a      	ldr	r2, [r3, #8]
 80043d4:	f022 022a 	bic.w	r2, r2, #42	; 0x2a
 80043d8:	609a      	str	r2, [r3, #8]
 80043da:	681a      	ldr	r2, [r3, #0]
 80043dc:	f042 0201 	orr.w	r2, r2, #1
 80043e0:	e8bd 4010 	ldmia.w	sp!, {r4, lr}
 80043e4:	601a      	str	r2, [r3, #0]
 80043e6:	f7ff beab 	b.w	8004140 <UART_CheckIdleState>
 80043ea:	4620      	mov	r0, r4
 80043ec:	f7ff fe50 	bl	8004090 <UART_AdvFeatureConfig>
 80043f0:	e7e9      	b.n	80043c6 <HAL_UART_Init+0x2a>
 80043f2:	2001      	movs	r0, #1
 80043f4:	bd10      	pop	{r4, pc}
 80043f6:	f880 3084 	strb.w	r3, [r0, #132]	; 0x84
 80043fa:	f7fc faf1 	bl	80009e0 <HAL_UART_MspInit>
 80043fe:	e7d3      	b.n	80043a8 <HAL_UART_Init+0xc>
 8004400:	2001      	movs	r0, #1
 8004402:	4770      	bx	lr

08004404 <HAL_UARTEx_WakeupCallback>:
 8004404:	4770      	bx	lr
 8004406:	bf00      	nop

08004408 <HAL_UARTEx_RxFifoFullCallback>:
 8004408:	4770      	bx	lr
 800440a:	bf00      	nop

0800440c <HAL_UARTEx_TxFifoEmptyCallback>:
 800440c:	4770      	bx	lr
 800440e:	bf00      	nop

08004410 <HAL_UARTEx_DisableFifoMode>:
 8004410:	f890 2084 	ldrb.w	r2, [r0, #132]	; 0x84
 8004414:	2a01      	cmp	r2, #1
 8004416:	d017      	beq.n	8004448 <HAL_UARTEx_DisableFifoMode+0x38>
 8004418:	6802      	ldr	r2, [r0, #0]
 800441a:	4603      	mov	r3, r0
 800441c:	2024      	movs	r0, #36	; 0x24
 800441e:	2100      	movs	r1, #0
 8004420:	b430      	push	{r4, r5}
 8004422:	f8c3 0088 	str.w	r0, [r3, #136]	; 0x88
 8004426:	2520      	movs	r5, #32
 8004428:	6810      	ldr	r0, [r2, #0]
 800442a:	6814      	ldr	r4, [r2, #0]
 800442c:	f020 5000 	bic.w	r0, r0, #536870912	; 0x20000000
 8004430:	f024 0401 	bic.w	r4, r4, #1
 8004434:	6014      	str	r4, [r2, #0]
 8004436:	6659      	str	r1, [r3, #100]	; 0x64
 8004438:	6010      	str	r0, [r2, #0]
 800443a:	4608      	mov	r0, r1
 800443c:	f8c3 5088 	str.w	r5, [r3, #136]	; 0x88
 8004440:	f883 1084 	strb.w	r1, [r3, #132]	; 0x84
 8004444:	bc30      	pop	{r4, r5}
 8004446:	4770      	bx	lr
 8004448:	2002      	movs	r0, #2
 800444a:	4770      	bx	lr

0800444c <HAL_UARTEx_SetTxFifoThreshold>:
 800444c:	f890 2084 	ldrb.w	r2, [r0, #132]	; 0x84
 8004450:	2a01      	cmp	r2, #1
 8004452:	d037      	beq.n	80044c4 <HAL_UARTEx_SetTxFifoThreshold+0x78>
 8004454:	6802      	ldr	r2, [r0, #0]
 8004456:	4603      	mov	r3, r0
 8004458:	2024      	movs	r0, #36	; 0x24
 800445a:	b530      	push	{r4, r5, lr}
 800445c:	f8c3 0088 	str.w	r0, [r3, #136]	; 0x88
 8004460:	6814      	ldr	r4, [r2, #0]
 8004462:	6810      	ldr	r0, [r2, #0]
 8004464:	f020 0001 	bic.w	r0, r0, #1
 8004468:	6010      	str	r0, [r2, #0]
 800446a:	6890      	ldr	r0, [r2, #8]
 800446c:	f020 4060 	bic.w	r0, r0, #3758096384	; 0xe0000000
 8004470:	4301      	orrs	r1, r0
 8004472:	6e58      	ldr	r0, [r3, #100]	; 0x64
 8004474:	6091      	str	r1, [r2, #8]
 8004476:	b310      	cbz	r0, 80044be <HAL_UARTEx_SetTxFifoThreshold+0x72>
 8004478:	6891      	ldr	r1, [r2, #8]
 800447a:	6890      	ldr	r0, [r2, #8]
 800447c:	f3c1 6c42 	ubfx	ip, r1, #25, #3
 8004480:	4911      	ldr	r1, [pc, #68]	; (80044c8 <HAL_UARTEx_SetTxFifoThreshold+0x7c>)
 8004482:	ea4f 7e50 	mov.w	lr, r0, lsr #29
 8004486:	4d11      	ldr	r5, [pc, #68]	; (80044cc <HAL_UARTEx_SetTxFifoThreshold+0x80>)
 8004488:	f811 000e 	ldrb.w	r0, [r1, lr]
 800448c:	f811 100c 	ldrb.w	r1, [r1, ip]
 8004490:	f815 e00e 	ldrb.w	lr, [r5, lr]
 8004494:	0100      	lsls	r0, r0, #4
 8004496:	f815 500c 	ldrb.w	r5, [r5, ip]
 800449a:	0109      	lsls	r1, r1, #4
 800449c:	fbb0 f0fe 	udiv	r0, r0, lr
 80044a0:	fbb1 f1f5 	udiv	r1, r1, r5
 80044a4:	f8a3 1068 	strh.w	r1, [r3, #104]	; 0x68
 80044a8:	2520      	movs	r5, #32
 80044aa:	2100      	movs	r1, #0
 80044ac:	f8a3 006a 	strh.w	r0, [r3, #106]	; 0x6a
 80044b0:	6014      	str	r4, [r2, #0]
 80044b2:	4608      	mov	r0, r1
 80044b4:	f8c3 5088 	str.w	r5, [r3, #136]	; 0x88
 80044b8:	f883 1084 	strb.w	r1, [r3, #132]	; 0x84
 80044bc:	bd30      	pop	{r4, r5, pc}
 80044be:	2101      	movs	r1, #1
 80044c0:	4608      	mov	r0, r1
 80044c2:	e7ef      	b.n	80044a4 <HAL_UARTEx_SetTxFifoThreshold+0x58>
 80044c4:	2002      	movs	r0, #2
 80044c6:	4770      	bx	lr
 80044c8:	08005bcc 	.word	0x08005bcc
 80044cc:	08005bc4 	.word	0x08005bc4

080044d0 <HAL_UARTEx_SetRxFifoThreshold>:
 80044d0:	f890 2084 	ldrb.w	r2, [r0, #132]	; 0x84
 80044d4:	2a01      	cmp	r2, #1
 80044d6:	d037      	beq.n	8004548 <HAL_UARTEx_SetRxFifoThreshold+0x78>
 80044d8:	6802      	ldr	r2, [r0, #0]
 80044da:	4603      	mov	r3, r0
 80044dc:	2024      	movs	r0, #36	; 0x24
 80044de:	b530      	push	{r4, r5, lr}
 80044e0:	f8c3 0088 	str.w	r0, [r3, #136]	; 0x88
 80044e4:	6814      	ldr	r4, [r2, #0]
 80044e6:	6810      	ldr	r0, [r2, #0]
 80044e8:	f020 0001 	bic.w	r0, r0, #1
 80044ec:	6010      	str	r0, [r2, #0]
 80044ee:	6890      	ldr	r0, [r2, #8]
 80044f0:	f020 6060 	bic.w	r0, r0, #234881024	; 0xe000000
 80044f4:	4301      	orrs	r1, r0
 80044f6:	6e58      	ldr	r0, [r3, #100]	; 0x64
 80044f8:	6091      	str	r1, [r2, #8]
 80044fa:	b310      	cbz	r0, 8004542 <HAL_UARTEx_SetRxFifoThreshold+0x72>
 80044fc:	6891      	ldr	r1, [r2, #8]
 80044fe:	6890      	ldr	r0, [r2, #8]
 8004500:	f3c1 6c42 	ubfx	ip, r1, #25, #3
 8004504:	4911      	ldr	r1, [pc, #68]	; (800454c <HAL_UARTEx_SetRxFifoThreshold+0x7c>)
 8004506:	ea4f 7e50 	mov.w	lr, r0, lsr #29
 800450a:	4d11      	ldr	r5, [pc, #68]	; (8004550 <HAL_UARTEx_SetRxFifoThreshold+0x80>)
 800450c:	f811 000e 	ldrb.w	r0, [r1, lr]
 8004510:	f811 100c 	ldrb.w	r1, [r1, ip]
 8004514:	f815 e00e 	ldrb.w	lr, [r5, lr]
 8004518:	0100      	lsls	r0, r0, #4
 800451a:	f815 500c 	ldrb.w	r5, [r5, ip]
 800451e:	0109      	lsls	r1, r1, #4
 8004520:	fbb0 f0fe 	udiv	r0, r0, lr
 8004524:	fbb1 f1f5 	udiv	r1, r1, r5
 8004528:	f8a3 1068 	strh.w	r1, [r3, #104]	; 0x68
 800452c:	2520      	movs	r5, #32
 800452e:	2100      	movs	r1, #0
 8004530:	f8a3 006a 	strh.w	r0, [r3, #106]	; 0x6a
 8004534:	6014      	str	r4, [r2, #0]
 8004536:	4608      	mov	r0, r1
 8004538:	f8c3 5088 	str.w	r5, [r3, #136]	; 0x88
 800453c:	f883 1084 	strb.w	r1, [r3, #132]	; 0x84
 8004540:	bd30      	pop	{r4, r5, pc}
 8004542:	2101      	movs	r1, #1
 8004544:	4608      	mov	r0, r1
 8004546:	e7ef      	b.n	8004528 <HAL_UARTEx_SetRxFifoThreshold+0x58>
 8004548:	2002      	movs	r0, #2
 800454a:	4770      	bx	lr
 800454c:	08005bcc 	.word	0x08005bcc
 8004550:	08005bc4 	.word	0x08005bc4

08004554 <load_descriptor_values>:
 8004554:	b5f0      	push	{r4, r5, r6, r7, lr}
 8004556:	6804      	ldr	r4, [r0, #0]
 8004558:	8901      	ldrh	r1, [r0, #8]
 800455a:	8a22      	ldrh	r2, [r4, #16]
 800455c:	4291      	cmp	r1, r2
 800455e:	d239      	bcs.n	80045d4 <load_descriptor_values+0x80>
 8004560:	4603      	mov	r3, r0
 8004562:	6820      	ldr	r0, [r4, #0]
 8004564:	895a      	ldrh	r2, [r3, #10]
 8004566:	0096      	lsls	r6, r2, #2
 8004568:	f850 2022 	ldr.w	r2, [r0, r2, lsl #2]
 800456c:	f002 0503 	and.w	r5, r2, #3
 8004570:	f3c2 2107 	ubfx	r1, r2, #8, #8
 8004574:	2d01      	cmp	r5, #1
 8004576:	7599      	strb	r1, [r3, #22]
 8004578:	d048      	beq.n	800460c <load_descriptor_values+0xb8>
 800457a:	2d02      	cmp	r5, #2
 800457c:	d037      	beq.n	80045ee <load_descriptor_values+0x9a>
 800457e:	b35d      	cbz	r5, 80045d8 <load_descriptor_values+0x84>
 8004580:	4430      	add	r0, r6
 8004582:	f3c2 0285 	ubfx	r2, r2, #2, #6
 8004586:	e9d0 5601 	ldrd	r5, r6, [r0, #4]
 800458a:	f8b0 c010 	ldrh.w	ip, [r0, #16]
 800458e:	f8b0 e00c 	ldrh.w	lr, [r0, #12]
 8004592:	0a28      	lsrs	r0, r5, #8
 8004594:	ea42 1280 	orr.w	r2, r2, r0, lsl #6
 8004598:	b268      	sxtb	r0, r5
 800459a:	b295      	uxth	r5, r2
 800459c:	685a      	ldr	r2, [r3, #4]
 800459e:	f8a3 c014 	strh.w	ip, [r3, #20]
 80045a2:	821d      	strh	r5, [r3, #16]
 80045a4:	f8a3 e012 	strh.w	lr, [r3, #18]
 80045a8:	2a00      	cmp	r2, #0
 80045aa:	d04c      	beq.n	8004646 <load_descriptor_values+0xf2>
 80045ac:	4432      	add	r2, r6
 80045ae:	2800      	cmp	r0, #0
 80045b0:	d03a      	beq.n	8004628 <load_descriptor_values+0xd4>
 80045b2:	1a10      	subs	r0, r2, r0
 80045b4:	f001 05c0 	and.w	r5, r1, #192	; 0xc0
 80045b8:	2d80      	cmp	r5, #128	; 0x80
 80045ba:	6218      	str	r0, [r3, #32]
 80045bc:	619a      	str	r2, [r3, #24]
 80045be:	bf08      	it	eq
 80045c0:	6812      	ldreq	r2, [r2, #0]
 80045c2:	61da      	str	r2, [r3, #28]
 80045c4:	f001 010e 	and.w	r1, r1, #14
 80045c8:	2908      	cmp	r1, #8
 80045ca:	d035      	beq.n	8004638 <load_descriptor_values+0xe4>
 80045cc:	2200      	movs	r2, #0
 80045ce:	2001      	movs	r0, #1
 80045d0:	625a      	str	r2, [r3, #36]	; 0x24
 80045d2:	bdf0      	pop	{r4, r5, r6, r7, pc}
 80045d4:	2000      	movs	r0, #0
 80045d6:	bdf0      	pop	{r4, r5, r6, r7, pc}
 80045d8:	f3c2 0585 	ubfx	r5, r2, #2, #6
 80045dc:	f3c2 6003 	ubfx	r0, r2, #24, #4
 80045e0:	f3c2 4607 	ubfx	r6, r2, #16, #8
 80045e4:	ea4f 7e12 	mov.w	lr, r2, lsr #28
 80045e8:	f04f 0c01 	mov.w	ip, #1
 80045ec:	e7d6      	b.n	800459c <load_descriptor_values+0x48>
 80045ee:	4430      	add	r0, r6
 80045f0:	f3c2 0585 	ubfx	r5, r2, #2, #6
 80045f4:	ea4f 4c12 	mov.w	ip, r2, lsr #16
 80045f8:	f8b0 e00c 	ldrh.w	lr, [r0, #12]
 80045fc:	e9d0 2601 	ldrd	r2, r6, [r0, #4]
 8004600:	0a10      	lsrs	r0, r2, #8
 8004602:	ea45 1580 	orr.w	r5, r5, r0, lsl #6
 8004606:	b250      	sxtb	r0, r2
 8004608:	b2ad      	uxth	r5, r5
 800460a:	e7c7      	b.n	800459c <load_descriptor_values+0x48>
 800460c:	4430      	add	r0, r6
 800460e:	f3c2 0585 	ubfx	r5, r2, #2, #6
 8004612:	f3c2 4c0b 	ubfx	ip, r2, #16, #12
 8004616:	6847      	ldr	r7, [r0, #4]
 8004618:	0f10      	lsrs	r0, r2, #28
 800461a:	0f3a      	lsrs	r2, r7, #28
 800461c:	f3c7 4e0b 	ubfx	lr, r7, #16, #12
 8004620:	b2be      	uxth	r6, r7
 8004622:	ea45 1582 	orr.w	r5, r5, r2, lsl #6
 8004626:	e7b9      	b.n	800459c <load_descriptor_values+0x48>
 8004628:	f001 0030 	and.w	r0, r1, #48	; 0x30
 800462c:	f001 05c0 	and.w	r5, r1, #192	; 0xc0
 8004630:	2820      	cmp	r0, #32
 8004632:	d00b      	beq.n	800464c <load_descriptor_values+0xf8>
 8004634:	2000      	movs	r0, #0
 8004636:	e7bf      	b.n	80045b8 <load_descriptor_values+0x64>
 8004638:	6862      	ldr	r2, [r4, #4]
 800463a:	2001      	movs	r0, #1
 800463c:	89d9      	ldrh	r1, [r3, #14]
 800463e:	f852 2021 	ldr.w	r2, [r2, r1, lsl #2]
 8004642:	625a      	str	r2, [r3, #36]	; 0x24
 8004644:	bdf0      	pop	{r4, r5, r6, r7, pc}
 8004646:	619a      	str	r2, [r3, #24]
 8004648:	621a      	str	r2, [r3, #32]
 800464a:	e7bb      	b.n	80045c4 <load_descriptor_values+0x70>
 800464c:	0648      	lsls	r0, r1, #25
 800464e:	d4f1      	bmi.n	8004634 <load_descriptor_values+0xe0>
 8004650:	f103 0014 	add.w	r0, r3, #20
 8004654:	e7b0      	b.n	80045b8 <load_descriptor_values+0x64>
 8004656:	bf00      	nop

08004658 <pb_field_iter_begin>:
 8004658:	e92d 41f0 	stmdb	sp!, {r4, r5, r6, r7, r8, lr}
 800465c:	460e      	mov	r6, r1
 800465e:	4615      	mov	r5, r2
 8004660:	4604      	mov	r4, r0
 8004662:	2100      	movs	r1, #0
 8004664:	2220      	movs	r2, #32
 8004666:	3008      	adds	r0, #8
 8004668:	f001 fa32 	bl	8005ad0 <memset>
 800466c:	8a30      	ldrh	r0, [r6, #16]
 800466e:	e9c4 6500 	strd	r6, r5, [r4]
 8004672:	b368      	cbz	r0, 80046d0 <pb_field_iter_begin+0x78>
 8004674:	6830      	ldr	r0, [r6, #0]
 8004676:	6803      	ldr	r3, [r0, #0]
 8004678:	f003 0103 	and.w	r1, r3, #3
 800467c:	f3c3 2207 	ubfx	r2, r3, #8, #8
 8004680:	2901      	cmp	r1, #1
 8004682:	75a2      	strb	r2, [r4, #22]
 8004684:	d03f      	beq.n	8004706 <pb_field_iter_begin+0xae>
 8004686:	2902      	cmp	r1, #2
 8004688:	d02f      	beq.n	80046ea <pb_field_iter_begin+0x92>
 800468a:	b319      	cbz	r1, 80046d4 <pb_field_iter_begin+0x7c>
 800468c:	f3c3 0385 	ubfx	r3, r3, #2, #6
 8004690:	f8b0 e010 	ldrh.w	lr, [r0, #16]
 8004694:	f8b0 800c 	ldrh.w	r8, [r0, #12]
 8004698:	e9d0 1701 	ldrd	r1, r7, [r0, #4]
 800469c:	0a08      	lsrs	r0, r1, #8
 800469e:	b249      	sxtb	r1, r1
 80046a0:	ea43 1380 	orr.w	r3, r3, r0, lsl #6
 80046a4:	b298      	uxth	r0, r3
 80046a6:	f8a4 e014 	strh.w	lr, [r4, #20]
 80046aa:	8220      	strh	r0, [r4, #16]
 80046ac:	f8a4 8012 	strh.w	r8, [r4, #18]
 80046b0:	b14d      	cbz	r5, 80046c6 <pb_field_iter_begin+0x6e>
 80046b2:	443d      	add	r5, r7
 80046b4:	61a5      	str	r5, [r4, #24]
 80046b6:	b3b1      	cbz	r1, 8004726 <pb_field_iter_begin+0xce>
 80046b8:	1a69      	subs	r1, r5, r1
 80046ba:	f002 03c0 	and.w	r3, r2, #192	; 0xc0
 80046be:	6221      	str	r1, [r4, #32]
 80046c0:	2b80      	cmp	r3, #128	; 0x80
 80046c2:	d042      	beq.n	800474a <pb_field_iter_begin+0xf2>
 80046c4:	61e5      	str	r5, [r4, #28]
 80046c6:	f002 020e 	and.w	r2, r2, #14
 80046ca:	2a08      	cmp	r2, #8
 80046cc:	d037      	beq.n	800473e <pb_field_iter_begin+0xe6>
 80046ce:	2001      	movs	r0, #1
 80046d0:	e8bd 81f0 	ldmia.w	sp!, {r4, r5, r6, r7, r8, pc}
 80046d4:	f3c3 0085 	ubfx	r0, r3, #2, #6
 80046d8:	f3c3 6103 	ubfx	r1, r3, #24, #4
 80046dc:	f3c3 4707 	ubfx	r7, r3, #16, #8
 80046e0:	ea4f 7813 	mov.w	r8, r3, lsr #28
 80046e4:	f04f 0e01 	mov.w	lr, #1
 80046e8:	e7dd      	b.n	80046a6 <pb_field_iter_begin+0x4e>
 80046ea:	6841      	ldr	r1, [r0, #4]
 80046ec:	f3c3 0c85 	ubfx	ip, r3, #2, #6
 80046f0:	ea4f 4e13 	mov.w	lr, r3, lsr #16
 80046f4:	6887      	ldr	r7, [r0, #8]
 80046f6:	0a0b      	lsrs	r3, r1, #8
 80046f8:	f8b0 800c 	ldrh.w	r8, [r0, #12]
 80046fc:	b249      	sxtb	r1, r1
 80046fe:	ea4c 1083 	orr.w	r0, ip, r3, lsl #6
 8004702:	b280      	uxth	r0, r0
 8004704:	e7cf      	b.n	80046a6 <pb_field_iter_begin+0x4e>
 8004706:	f8d0 8004 	ldr.w	r8, [r0, #4]
 800470a:	f3c3 4e0b 	ubfx	lr, r3, #16, #12
 800470e:	f3c3 0085 	ubfx	r0, r3, #2, #6
 8004712:	0f19      	lsrs	r1, r3, #28
 8004714:	ea4f 7318 	mov.w	r3, r8, lsr #28
 8004718:	fa1f f788 	uxth.w	r7, r8
 800471c:	f3c8 480b 	ubfx	r8, r8, #16, #12
 8004720:	ea40 1083 	orr.w	r0, r0, r3, lsl #6
 8004724:	e7bf      	b.n	80046a6 <pb_field_iter_begin+0x4e>
 8004726:	f002 0330 	and.w	r3, r2, #48	; 0x30
 800472a:	2b20      	cmp	r3, #32
 800472c:	f002 03c0 	and.w	r3, r2, #192	; 0xc0
 8004730:	d1c6      	bne.n	80046c0 <pb_field_iter_begin+0x68>
 8004732:	0651      	lsls	r1, r2, #25
 8004734:	d4c4      	bmi.n	80046c0 <pb_field_iter_begin+0x68>
 8004736:	f104 0114 	add.w	r1, r4, #20
 800473a:	6221      	str	r1, [r4, #32]
 800473c:	e7c0      	b.n	80046c0 <pb_field_iter_begin+0x68>
 800473e:	6873      	ldr	r3, [r6, #4]
 8004740:	2001      	movs	r0, #1
 8004742:	681b      	ldr	r3, [r3, #0]
 8004744:	6263      	str	r3, [r4, #36]	; 0x24
 8004746:	e8bd 81f0 	ldmia.w	sp!, {r4, r5, r6, r7, r8, pc}
 800474a:	682b      	ldr	r3, [r5, #0]
 800474c:	61e3      	str	r3, [r4, #28]
 800474e:	e7ba      	b.n	80046c6 <pb_field_iter_begin+0x6e>

08004750 <pb_field_iter_begin_extension>:
 8004750:	e92d 43f8 	stmdb	sp!, {r3, r4, r5, r6, r7, r8, r9, lr}
 8004754:	680b      	ldr	r3, [r1, #0]
 8004756:	460d      	mov	r5, r1
 8004758:	4604      	mov	r4, r0
 800475a:	2220      	movs	r2, #32
 800475c:	689e      	ldr	r6, [r3, #8]
 800475e:	2100      	movs	r1, #0
 8004760:	6833      	ldr	r3, [r6, #0]
 8004762:	681b      	ldr	r3, [r3, #0]
 8004764:	0a1b      	lsrs	r3, r3, #8
 8004766:	f003 03c0 	and.w	r3, r3, #192	; 0xc0
 800476a:	2b80      	cmp	r3, #128	; 0x80
 800476c:	d03c      	beq.n	80047e8 <pb_field_iter_begin_extension+0x98>
 800476e:	3008      	adds	r0, #8
 8004770:	686f      	ldr	r7, [r5, #4]
 8004772:	f001 f9ad 	bl	8005ad0 <memset>
 8004776:	8a30      	ldrh	r0, [r6, #16]
 8004778:	e9c4 6700 	strd	r6, r7, [r4]
 800477c:	b380      	cbz	r0, 80047e0 <pb_field_iter_begin_extension+0x90>
 800477e:	6830      	ldr	r0, [r6, #0]
 8004780:	6803      	ldr	r3, [r0, #0]
 8004782:	f003 0103 	and.w	r1, r3, #3
 8004786:	f3c3 2207 	ubfx	r2, r3, #8, #8
 800478a:	2901      	cmp	r1, #1
 800478c:	75a2      	strb	r2, [r4, #22]
 800478e:	d04c      	beq.n	800482a <pb_field_iter_begin_extension+0xda>
 8004790:	2902      	cmp	r1, #2
 8004792:	d065      	beq.n	8004860 <pb_field_iter_begin_extension+0x110>
 8004794:	2900      	cmp	r1, #0
 8004796:	d058      	beq.n	800484a <pb_field_iter_begin_extension+0xfa>
 8004798:	f3c3 0385 	ubfx	r3, r3, #2, #6
 800479c:	f8b0 c010 	ldrh.w	ip, [r0, #16]
 80047a0:	f8b0 900c 	ldrh.w	r9, [r0, #12]
 80047a4:	e9d0 1e01 	ldrd	r1, lr, [r0, #4]
 80047a8:	0a08      	lsrs	r0, r1, #8
 80047aa:	b249      	sxtb	r1, r1
 80047ac:	ea43 1380 	orr.w	r3, r3, r0, lsl #6
 80047b0:	b298      	uxth	r0, r3
 80047b2:	f8a4 c014 	strh.w	ip, [r4, #20]
 80047b6:	8220      	strh	r0, [r4, #16]
 80047b8:	f8a4 9012 	strh.w	r9, [r4, #18]
 80047bc:	b15f      	cbz	r7, 80047d6 <pb_field_iter_begin_extension+0x86>
 80047be:	4477      	add	r7, lr
 80047c0:	61a7      	str	r7, [r4, #24]
 80047c2:	b9f1      	cbnz	r1, 8004802 <pb_field_iter_begin_extension+0xb2>
 80047c4:	f002 0330 	and.w	r3, r2, #48	; 0x30
 80047c8:	2b20      	cmp	r3, #32
 80047ca:	f002 03c0 	and.w	r3, r2, #192	; 0xc0
 80047ce:	d056      	beq.n	800487e <pb_field_iter_begin_extension+0x12e>
 80047d0:	2b80      	cmp	r3, #128	; 0x80
 80047d2:	d01c      	beq.n	800480e <pb_field_iter_begin_extension+0xbe>
 80047d4:	61e7      	str	r7, [r4, #28]
 80047d6:	f002 020e 	and.w	r2, r2, #14
 80047da:	2a08      	cmp	r2, #8
 80047dc:	d01d      	beq.n	800481a <pb_field_iter_begin_extension+0xca>
 80047de:	2001      	movs	r0, #1
 80047e0:	350c      	adds	r5, #12
 80047e2:	6225      	str	r5, [r4, #32]
 80047e4:	e8bd 83f8 	ldmia.w	sp!, {r3, r4, r5, r6, r7, r8, r9, pc}
 80047e8:	3008      	adds	r0, #8
 80047ea:	f001 f971 	bl	8005ad0 <memset>
 80047ee:	1d2b      	adds	r3, r5, #4
 80047f0:	350c      	adds	r5, #12
 80047f2:	4620      	mov	r0, r4
 80047f4:	e9c4 6300 	strd	r6, r3, [r4]
 80047f8:	f7ff feac 	bl	8004554 <load_descriptor_values>
 80047fc:	6225      	str	r5, [r4, #32]
 80047fe:	e8bd 83f8 	ldmia.w	sp!, {r3, r4, r5, r6, r7, r8, r9, pc}
 8004802:	f002 03c0 	and.w	r3, r2, #192	; 0xc0
 8004806:	1a79      	subs	r1, r7, r1
 8004808:	2b80      	cmp	r3, #128	; 0x80
 800480a:	6221      	str	r1, [r4, #32]
 800480c:	d1e2      	bne.n	80047d4 <pb_field_iter_begin_extension+0x84>
 800480e:	f002 020e 	and.w	r2, r2, #14
 8004812:	683b      	ldr	r3, [r7, #0]
 8004814:	2a08      	cmp	r2, #8
 8004816:	61e3      	str	r3, [r4, #28]
 8004818:	d1e1      	bne.n	80047de <pb_field_iter_begin_extension+0x8e>
 800481a:	6873      	ldr	r3, [r6, #4]
 800481c:	350c      	adds	r5, #12
 800481e:	2001      	movs	r0, #1
 8004820:	681b      	ldr	r3, [r3, #0]
 8004822:	6225      	str	r5, [r4, #32]
 8004824:	6263      	str	r3, [r4, #36]	; 0x24
 8004826:	e8bd 83f8 	ldmia.w	sp!, {r3, r4, r5, r6, r7, r8, r9, pc}
 800482a:	f8d0 9004 	ldr.w	r9, [r0, #4]
 800482e:	f3c3 4c0b 	ubfx	ip, r3, #16, #12
 8004832:	f3c3 0085 	ubfx	r0, r3, #2, #6
 8004836:	0f19      	lsrs	r1, r3, #28
 8004838:	ea4f 7319 	mov.w	r3, r9, lsr #28
 800483c:	fa1f fe89 	uxth.w	lr, r9
 8004840:	f3c9 490b 	ubfx	r9, r9, #16, #12
 8004844:	ea40 1083 	orr.w	r0, r0, r3, lsl #6
 8004848:	e7b3      	b.n	80047b2 <pb_field_iter_begin_extension+0x62>
 800484a:	f3c3 0085 	ubfx	r0, r3, #2, #6
 800484e:	f3c3 6103 	ubfx	r1, r3, #24, #4
 8004852:	f3c3 4e07 	ubfx	lr, r3, #16, #8
 8004856:	ea4f 7913 	mov.w	r9, r3, lsr #28
 800485a:	f04f 0c01 	mov.w	ip, #1
 800485e:	e7a8      	b.n	80047b2 <pb_field_iter_begin_extension+0x62>
 8004860:	6841      	ldr	r1, [r0, #4]
 8004862:	f3c3 0885 	ubfx	r8, r3, #2, #6
 8004866:	ea4f 4c13 	mov.w	ip, r3, lsr #16
 800486a:	f8d0 e008 	ldr.w	lr, [r0, #8]
 800486e:	0a0b      	lsrs	r3, r1, #8
 8004870:	f8b0 900c 	ldrh.w	r9, [r0, #12]
 8004874:	b249      	sxtb	r1, r1
 8004876:	ea48 1083 	orr.w	r0, r8, r3, lsl #6
 800487a:	b280      	uxth	r0, r0
 800487c:	e799      	b.n	80047b2 <pb_field_iter_begin_extension+0x62>
 800487e:	0651      	lsls	r1, r2, #25
 8004880:	d4a6      	bmi.n	80047d0 <pb_field_iter_begin_extension+0x80>
 8004882:	f104 0114 	add.w	r1, r4, #20
 8004886:	6221      	str	r1, [r4, #32]
 8004888:	e7a2      	b.n	80047d0 <pb_field_iter_begin_extension+0x80>
 800488a:	bf00      	nop

0800488c <pb_field_iter_next>:
 800488c:	8902      	ldrh	r2, [r0, #8]
 800488e:	4603      	mov	r3, r0
 8004890:	e92d 41f0 	stmdb	sp!, {r4, r5, r6, r7, r8, lr}
 8004894:	3201      	adds	r2, #1
 8004896:	6804      	ldr	r4, [r0, #0]
 8004898:	b292      	uxth	r2, r2
 800489a:	8a20      	ldrh	r0, [r4, #16]
 800489c:	4282      	cmp	r2, r0
 800489e:	811a      	strh	r2, [r3, #8]
 80048a0:	d306      	bcc.n	80048b0 <pb_field_iter_next+0x24>
 80048a2:	2200      	movs	r2, #0
 80048a4:	e9c3 2202 	strd	r2, r2, [r3, #8]
 80048a8:	2800      	cmp	r0, #0
 80048aa:	d16d      	bne.n	8004988 <pb_field_iter_next+0xfc>
 80048ac:	e8bd 81f0 	ldmia.w	sp!, {r4, r5, r6, r7, r8, pc}
 80048b0:	6825      	ldr	r5, [r4, #0]
 80048b2:	1e10      	subs	r0, r2, #0
 80048b4:	f8b3 c00a 	ldrh.w	ip, [r3, #10]
 80048b8:	f04f 0201 	mov.w	r2, #1
 80048bc:	899f      	ldrh	r7, [r3, #12]
 80048be:	bf18      	it	ne
 80048c0:	2001      	movne	r0, #1
 80048c2:	f855 102c 	ldr.w	r1, [r5, ip, lsl #2]
 80048c6:	89de      	ldrh	r6, [r3, #14]
 80048c8:	f001 0e03 	and.w	lr, r1, #3
 80048cc:	0a09      	lsrs	r1, r1, #8
 80048ce:	fa02 f20e 	lsl.w	r2, r2, lr
 80048d2:	4462      	add	r2, ip
 80048d4:	f001 0c30 	and.w	ip, r1, #48	; 0x30
 80048d8:	f001 010e 	and.w	r1, r1, #14
 80048dc:	b292      	uxth	r2, r2
 80048de:	f1bc 0f00 	cmp.w	ip, #0
 80048e2:	bf08      	it	eq
 80048e4:	3701      	addeq	r7, #1
 80048e6:	2908      	cmp	r1, #8
 80048e8:	bf08      	it	eq
 80048ea:	3601      	addeq	r6, #1
 80048ec:	eb05 0182 	add.w	r1, r5, r2, lsl #2
 80048f0:	815a      	strh	r2, [r3, #10]
 80048f2:	819f      	strh	r7, [r3, #12]
 80048f4:	81de      	strh	r6, [r3, #14]
 80048f6:	680f      	ldr	r7, [r1, #0]
 80048f8:	f007 0603 	and.w	r6, r7, #3
 80048fc:	f3c7 2107 	ubfx	r1, r7, #8, #8
 8004900:	2e01      	cmp	r6, #1
 8004902:	7599      	strb	r1, [r3, #22]
 8004904:	d04c      	beq.n	80049a0 <pb_field_iter_next+0x114>
 8004906:	2e02      	cmp	r6, #2
 8004908:	d05b      	beq.n	80049c2 <pb_field_iter_next+0x136>
 800490a:	2e00      	cmp	r6, #0
 800490c:	d06c      	beq.n	80049e8 <pb_field_iter_next+0x15c>
 800490e:	1c56      	adds	r6, r2, #1
 8004910:	f3c7 0285 	ubfx	r2, r7, #2, #6
 8004914:	f855 7026 	ldr.w	r7, [r5, r6, lsl #2]
 8004918:	eb05 0586 	add.w	r5, r5, r6, lsl #2
 800491c:	0a3e      	lsrs	r6, r7, #8
 800491e:	f8d5 8004 	ldr.w	r8, [r5, #4]
 8004922:	fa4f fc87 	sxtb.w	ip, r7
 8004926:	f8b5 e00c 	ldrh.w	lr, [r5, #12]
 800492a:	ea42 1286 	orr.w	r2, r2, r6, lsl #6
 800492e:	b296      	uxth	r6, r2
 8004930:	892a      	ldrh	r2, [r5, #8]
 8004932:	825a      	strh	r2, [r3, #18]
 8004934:	685a      	ldr	r2, [r3, #4]
 8004936:	f8a3 e014 	strh.w	lr, [r3, #20]
 800493a:	821e      	strh	r6, [r3, #16]
 800493c:	b36a      	cbz	r2, 800499a <pb_field_iter_next+0x10e>
 800493e:	4442      	add	r2, r8
 8004940:	f1bc 0f00 	cmp.w	ip, #0
 8004944:	d011      	beq.n	800496a <pb_field_iter_next+0xde>
 8004946:	eba2 050c 	sub.w	r5, r2, ip
 800494a:	f001 06c0 	and.w	r6, r1, #192	; 0xc0
 800494e:	2e80      	cmp	r6, #128	; 0x80
 8004950:	621d      	str	r5, [r3, #32]
 8004952:	619a      	str	r2, [r3, #24]
 8004954:	bf08      	it	eq
 8004956:	6812      	ldreq	r2, [r2, #0]
 8004958:	61da      	str	r2, [r3, #28]
 800495a:	f001 020e 	and.w	r2, r1, #14
 800495e:	2a08      	cmp	r2, #8
 8004960:	d00b      	beq.n	800497a <pb_field_iter_next+0xee>
 8004962:	2200      	movs	r2, #0
 8004964:	625a      	str	r2, [r3, #36]	; 0x24
 8004966:	e8bd 81f0 	ldmia.w	sp!, {r4, r5, r6, r7, r8, pc}
 800496a:	f001 0530 	and.w	r5, r1, #48	; 0x30
 800496e:	f001 06c0 	and.w	r6, r1, #192	; 0xc0
 8004972:	2d20      	cmp	r5, #32
 8004974:	d00c      	beq.n	8004990 <pb_field_iter_next+0x104>
 8004976:	2500      	movs	r5, #0
 8004978:	e7e9      	b.n	800494e <pb_field_iter_next+0xc2>
 800497a:	6862      	ldr	r2, [r4, #4]
 800497c:	89d9      	ldrh	r1, [r3, #14]
 800497e:	f852 2021 	ldr.w	r2, [r2, r1, lsl #2]
 8004982:	625a      	str	r2, [r3, #36]	; 0x24
 8004984:	e8bd 81f0 	ldmia.w	sp!, {r4, r5, r6, r7, r8, pc}
 8004988:	6825      	ldr	r5, [r4, #0]
 800498a:	4610      	mov	r0, r2
 800498c:	4629      	mov	r1, r5
 800498e:	e7b2      	b.n	80048f6 <pb_field_iter_next+0x6a>
 8004990:	064d      	lsls	r5, r1, #25
 8004992:	d4f0      	bmi.n	8004976 <pb_field_iter_next+0xea>
 8004994:	f103 0514 	add.w	r5, r3, #20
 8004998:	e7d9      	b.n	800494e <pb_field_iter_next+0xc2>
 800499a:	619a      	str	r2, [r3, #24]
 800499c:	621a      	str	r2, [r3, #32]
 800499e:	e7dc      	b.n	800495a <pb_field_iter_next+0xce>
 80049a0:	3201      	adds	r2, #1
 80049a2:	f3c7 0685 	ubfx	r6, r7, #2, #6
 80049a6:	f3c7 4e0b 	ubfx	lr, r7, #16, #12
 80049aa:	ea4f 7c17 	mov.w	ip, r7, lsr #28
 80049ae:	f855 2022 	ldr.w	r2, [r5, r2, lsl #2]
 80049b2:	0f15      	lsrs	r5, r2, #28
 80049b4:	fa1f f882 	uxth.w	r8, r2
 80049b8:	f3c2 420b 	ubfx	r2, r2, #16, #12
 80049bc:	ea46 1685 	orr.w	r6, r6, r5, lsl #6
 80049c0:	e7b7      	b.n	8004932 <pb_field_iter_next+0xa6>
 80049c2:	3201      	adds	r2, #1
 80049c4:	f3c7 0685 	ubfx	r6, r7, #2, #6
 80049c8:	ea4f 4e17 	mov.w	lr, r7, lsr #16
 80049cc:	f855 7022 	ldr.w	r7, [r5, r2, lsl #2]
 80049d0:	eb05 0282 	add.w	r2, r5, r2, lsl #2
 80049d4:	0a3d      	lsrs	r5, r7, #8
 80049d6:	f8d2 8004 	ldr.w	r8, [r2, #4]
 80049da:	fa4f fc87 	sxtb.w	ip, r7
 80049de:	8912      	ldrh	r2, [r2, #8]
 80049e0:	ea46 1685 	orr.w	r6, r6, r5, lsl #6
 80049e4:	b2b6      	uxth	r6, r6
 80049e6:	e7a4      	b.n	8004932 <pb_field_iter_next+0xa6>
 80049e8:	f3c7 0685 	ubfx	r6, r7, #2, #6
 80049ec:	f3c7 6c03 	ubfx	ip, r7, #24, #4
 80049f0:	f3c7 4807 	ubfx	r8, r7, #16, #8
 80049f4:	0f3a      	lsrs	r2, r7, #28
 80049f6:	f04f 0e01 	mov.w	lr, #1
 80049fa:	e79a      	b.n	8004932 <pb_field_iter_next+0xa6>

080049fc <pb_field_iter_find>:
 80049fc:	4602      	mov	r2, r0
 80049fe:	8a00      	ldrh	r0, [r0, #16]
 8004a00:	e92d 4ff0 	stmdb	sp!, {r4, r5, r6, r7, r8, r9, sl, fp, lr}
 8004a04:	4288      	cmp	r0, r1
 8004a06:	b083      	sub	sp, #12
 8004a08:	9000      	str	r0, [sp, #0]
 8004a0a:	f000 80f5 	beq.w	8004bf8 <pb_field_iter_find+0x1fc>
 8004a0e:	f8d2 8000 	ldr.w	r8, [r2]
 8004a12:	f8b8 3014 	ldrh.w	r3, [r8, #20]
 8004a16:	428b      	cmp	r3, r1
 8004a18:	f0c0 80e6 	bcc.w	8004be8 <pb_field_iter_find+0x1ec>
 8004a1c:	4288      	cmp	r0, r1
 8004a1e:	f8b2 b008 	ldrh.w	fp, [r2, #8]
 8004a22:	f200 808c 	bhi.w	8004b3e <pb_field_iter_find+0x142>
 8004a26:	f8b8 7010 	ldrh.w	r7, [r8, #16]
 8004a2a:	46dc      	mov	ip, fp
 8004a2c:	f102 0314 	add.w	r3, r2, #20
 8004a30:	f04f 0900 	mov.w	r9, #0
 8004a34:	9301      	str	r3, [sp, #4]
 8004a36:	e00f      	b.n	8004a58 <pb_field_iter_find+0x5c>
 8004a38:	682c      	ldr	r4, [r5, #0]
 8004a3a:	f8a2 900e 	strh.w	r9, [r2, #14]
 8004a3e:	ea81 0394 	eor.w	r3, r1, r4, lsr #2
 8004a42:	f8c2 900a 	str.w	r9, [r2, #10]
 8004a46:	08a0      	lsrs	r0, r4, #2
 8004a48:	f013 033f 	ands.w	r3, r3, #63	; 0x3f
 8004a4c:	d07d      	beq.n	8004b4a <pb_field_iter_find+0x14e>
 8004a4e:	f04f 0c00 	mov.w	ip, #0
 8004a52:	45e3      	cmp	fp, ip
 8004a54:	f000 8091 	beq.w	8004b7a <pb_field_iter_find+0x17e>
 8004a58:	f10c 0c01 	add.w	ip, ip, #1
 8004a5c:	f8d8 5000 	ldr.w	r5, [r8]
 8004a60:	fa1f fc8c 	uxth.w	ip, ip
 8004a64:	45bc      	cmp	ip, r7
 8004a66:	d2e7      	bcs.n	8004a38 <pb_field_iter_find+0x3c>
 8004a68:	8953      	ldrh	r3, [r2, #10]
 8004a6a:	f04f 0a01 	mov.w	sl, #1
 8004a6e:	89d6      	ldrh	r6, [r2, #14]
 8004a70:	f855 0023 	ldr.w	r0, [r5, r3, lsl #2]
 8004a74:	f8b2 e00c 	ldrh.w	lr, [r2, #12]
 8004a78:	f000 0403 	and.w	r4, r0, #3
 8004a7c:	0a00      	lsrs	r0, r0, #8
 8004a7e:	fa0a f404 	lsl.w	r4, sl, r4
 8004a82:	f000 0a30 	and.w	sl, r0, #48	; 0x30
 8004a86:	f000 000e 	and.w	r0, r0, #14
 8004a8a:	4423      	add	r3, r4
 8004a8c:	f1ba 0f00 	cmp.w	sl, #0
 8004a90:	bf08      	it	eq
 8004a92:	f10e 0e01 	addeq.w	lr, lr, #1
 8004a96:	2808      	cmp	r0, #8
 8004a98:	bf08      	it	eq
 8004a9a:	3601      	addeq	r6, #1
 8004a9c:	b29b      	uxth	r3, r3
 8004a9e:	f855 4023 	ldr.w	r4, [r5, r3, lsl #2]
 8004aa2:	81d6      	strh	r6, [r2, #14]
 8004aa4:	ea81 0694 	eor.w	r6, r1, r4, lsr #2
 8004aa8:	8153      	strh	r3, [r2, #10]
 8004aaa:	08a0      	lsrs	r0, r4, #2
 8004aac:	f8a2 e00c 	strh.w	lr, [r2, #12]
 8004ab0:	06b6      	lsls	r6, r6, #26
 8004ab2:	d1ce      	bne.n	8004a52 <pb_field_iter_find+0x56>
 8004ab4:	f004 0e03 	and.w	lr, r4, #3
 8004ab8:	f3c4 2607 	ubfx	r6, r4, #8, #8
 8004abc:	f1be 0f01 	cmp.w	lr, #1
 8004ac0:	7596      	strb	r6, [r2, #22]
 8004ac2:	d07f      	beq.n	8004bc4 <pb_field_iter_find+0x1c8>
 8004ac4:	f1be 0f02 	cmp.w	lr, #2
 8004ac8:	d06a      	beq.n	8004ba0 <pb_field_iter_find+0x1a4>
 8004aca:	f1be 0f00 	cmp.w	lr, #0
 8004ace:	d05d      	beq.n	8004b8c <pb_field_iter_find+0x190>
 8004ad0:	3301      	adds	r3, #1
 8004ad2:	f000 003f 	and.w	r0, r0, #63	; 0x3f
 8004ad6:	f855 4023 	ldr.w	r4, [r5, r3, lsl #2]
 8004ada:	eb05 0383 	add.w	r3, r5, r3, lsl #2
 8004ade:	0a25      	lsrs	r5, r4, #8
 8004ae0:	f8d3 a004 	ldr.w	sl, [r3, #4]
 8004ae4:	f8b3 e00c 	ldrh.w	lr, [r3, #12]
 8004ae8:	ea40 1085 	orr.w	r0, r0, r5, lsl #6
 8004aec:	891b      	ldrh	r3, [r3, #8]
 8004aee:	b265      	sxtb	r5, r4
 8004af0:	b280      	uxth	r0, r0
 8004af2:	8253      	strh	r3, [r2, #18]
 8004af4:	6853      	ldr	r3, [r2, #4]
 8004af6:	f8a2 e014 	strh.w	lr, [r2, #20]
 8004afa:	8210      	strh	r0, [r2, #16]
 8004afc:	2b00      	cmp	r3, #0
 8004afe:	d039      	beq.n	8004b74 <pb_field_iter_find+0x178>
 8004b00:	4453      	add	r3, sl
 8004b02:	b335      	cbz	r5, 8004b52 <pb_field_iter_find+0x156>
 8004b04:	1b5d      	subs	r5, r3, r5
 8004b06:	f006 00c0 	and.w	r0, r6, #192	; 0xc0
 8004b0a:	2880      	cmp	r0, #128	; 0x80
 8004b0c:	6215      	str	r5, [r2, #32]
 8004b0e:	6193      	str	r3, [r2, #24]
 8004b10:	bf08      	it	eq
 8004b12:	681b      	ldreq	r3, [r3, #0]
 8004b14:	61d3      	str	r3, [r2, #28]
 8004b16:	f006 060e 	and.w	r6, r6, #14
 8004b1a:	2e08      	cmp	r6, #8
 8004b1c:	d021      	beq.n	8004b62 <pb_field_iter_find+0x166>
 8004b1e:	8a13      	ldrh	r3, [r2, #16]
 8004b20:	f8c2 9024 	str.w	r9, [r2, #36]	; 0x24
 8004b24:	9300      	str	r3, [sp, #0]
 8004b26:	9b00      	ldr	r3, [sp, #0]
 8004b28:	428b      	cmp	r3, r1
 8004b2a:	d192      	bne.n	8004a52 <pb_field_iter_find+0x56>
 8004b2c:	7d93      	ldrb	r3, [r2, #22]
 8004b2e:	f003 030f 	and.w	r3, r3, #15
 8004b32:	2b0a      	cmp	r3, #10
 8004b34:	d08d      	beq.n	8004a52 <pb_field_iter_find+0x56>
 8004b36:	2001      	movs	r0, #1
 8004b38:	f8a2 c008 	strh.w	ip, [r2, #8]
 8004b3c:	e023      	b.n	8004b86 <pb_field_iter_find+0x18a>
 8004b3e:	f8b8 c010 	ldrh.w	ip, [r8, #16]
 8004b42:	4667      	mov	r7, ip
 8004b44:	f8a2 c008 	strh.w	ip, [r2, #8]
 8004b48:	e770      	b.n	8004a2c <pb_field_iter_find+0x30>
 8004b4a:	2f00      	cmp	r7, #0
 8004b4c:	d14a      	bne.n	8004be4 <pb_field_iter_find+0x1e8>
 8004b4e:	46bc      	mov	ip, r7
 8004b50:	e7e9      	b.n	8004b26 <pb_field_iter_find+0x12a>
 8004b52:	f006 0030 	and.w	r0, r6, #48	; 0x30
 8004b56:	2820      	cmp	r0, #32
 8004b58:	f006 00c0 	and.w	r0, r6, #192	; 0xc0
 8004b5c:	d048      	beq.n	8004bf0 <pb_field_iter_find+0x1f4>
 8004b5e:	2500      	movs	r5, #0
 8004b60:	e7d3      	b.n	8004b0a <pb_field_iter_find+0x10e>
 8004b62:	f8d8 3004 	ldr.w	r3, [r8, #4]
 8004b66:	89d0      	ldrh	r0, [r2, #14]
 8004b68:	f853 3020 	ldr.w	r3, [r3, r0, lsl #2]
 8004b6c:	6253      	str	r3, [r2, #36]	; 0x24
 8004b6e:	8a13      	ldrh	r3, [r2, #16]
 8004b70:	9300      	str	r3, [sp, #0]
 8004b72:	e7d8      	b.n	8004b26 <pb_field_iter_find+0x12a>
 8004b74:	6193      	str	r3, [r2, #24]
 8004b76:	6213      	str	r3, [r2, #32]
 8004b78:	e7cd      	b.n	8004b16 <pb_field_iter_find+0x11a>
 8004b7a:	4610      	mov	r0, r2
 8004b7c:	f8a2 b008 	strh.w	fp, [r2, #8]
 8004b80:	f7ff fce8 	bl	8004554 <load_descriptor_values>
 8004b84:	2000      	movs	r0, #0
 8004b86:	b003      	add	sp, #12
 8004b88:	e8bd 8ff0 	ldmia.w	sp!, {r4, r5, r6, r7, r8, r9, sl, fp, pc}
 8004b8c:	f000 003f 	and.w	r0, r0, #63	; 0x3f
 8004b90:	f3c4 6503 	ubfx	r5, r4, #24, #4
 8004b94:	f3c4 4a07 	ubfx	sl, r4, #16, #8
 8004b98:	0f23      	lsrs	r3, r4, #28
 8004b9a:	f04f 0e01 	mov.w	lr, #1
 8004b9e:	e7a8      	b.n	8004af2 <pb_field_iter_find+0xf6>
 8004ba0:	3301      	adds	r3, #1
 8004ba2:	ea4f 4e14 	mov.w	lr, r4, lsr #16
 8004ba6:	f000 003f 	and.w	r0, r0, #63	; 0x3f
 8004baa:	f855 4023 	ldr.w	r4, [r5, r3, lsl #2]
 8004bae:	eb05 0383 	add.w	r3, r5, r3, lsl #2
 8004bb2:	0a25      	lsrs	r5, r4, #8
 8004bb4:	f8d3 a004 	ldr.w	sl, [r3, #4]
 8004bb8:	891b      	ldrh	r3, [r3, #8]
 8004bba:	ea40 1085 	orr.w	r0, r0, r5, lsl #6
 8004bbe:	b265      	sxtb	r5, r4
 8004bc0:	b280      	uxth	r0, r0
 8004bc2:	e796      	b.n	8004af2 <pb_field_iter_find+0xf6>
 8004bc4:	3301      	adds	r3, #1
 8004bc6:	f000 003f 	and.w	r0, r0, #63	; 0x3f
 8004bca:	f3c4 4e0b 	ubfx	lr, r4, #16, #12
 8004bce:	f855 3023 	ldr.w	r3, [r5, r3, lsl #2]
 8004bd2:	0f25      	lsrs	r5, r4, #28
 8004bd4:	0f1c      	lsrs	r4, r3, #28
 8004bd6:	fa1f fa83 	uxth.w	sl, r3
 8004bda:	f3c3 430b 	ubfx	r3, r3, #16, #12
 8004bde:	ea40 1084 	orr.w	r0, r0, r4, lsl #6
 8004be2:	e786      	b.n	8004af2 <pb_field_iter_find+0xf6>
 8004be4:	469c      	mov	ip, r3
 8004be6:	e765      	b.n	8004ab4 <pb_field_iter_find+0xb8>
 8004be8:	2000      	movs	r0, #0
 8004bea:	b003      	add	sp, #12
 8004bec:	e8bd 8ff0 	ldmia.w	sp!, {r4, r5, r6, r7, r8, r9, sl, fp, pc}
 8004bf0:	0674      	lsls	r4, r6, #25
 8004bf2:	d4b4      	bmi.n	8004b5e <pb_field_iter_find+0x162>
 8004bf4:	9d01      	ldr	r5, [sp, #4]
 8004bf6:	e788      	b.n	8004b0a <pb_field_iter_find+0x10e>
 8004bf8:	2001      	movs	r0, #1
 8004bfa:	b003      	add	sp, #12
 8004bfc:	e8bd 8ff0 	ldmia.w	sp!, {r4, r5, r6, r7, r8, r9, sl, fp, pc}

08004c00 <pb_field_iter_find_extension>:
 8004c00:	e92d 43f8 	stmdb	sp!, {r3, r4, r5, r6, r7, r8, r9, lr}
 8004c04:	7d83      	ldrb	r3, [r0, #22]
 8004c06:	f003 030f 	and.w	r3, r3, #15
 8004c0a:	2b0a      	cmp	r3, #10
 8004c0c:	d04d      	beq.n	8004caa <pb_field_iter_find_extension+0xaa>
 8004c0e:	6803      	ldr	r3, [r0, #0]
 8004c10:	2701      	movs	r7, #1
 8004c12:	f8b0 e008 	ldrh.w	lr, [r0, #8]
 8004c16:	2500      	movs	r5, #0
 8004c18:	8a1e      	ldrh	r6, [r3, #16]
 8004c1a:	681c      	ldr	r4, [r3, #0]
 8004c1c:	4673      	mov	r3, lr
 8004c1e:	e00b      	b.n	8004c38 <pb_field_iter_find_extension+0x38>
 8004c20:	f8dc 2000 	ldr.w	r2, [ip]
 8004c24:	2300      	movs	r3, #0
 8004c26:	81c5      	strh	r5, [r0, #14]
 8004c28:	f3c2 2203 	ubfx	r2, r2, #8, #4
 8004c2c:	f8c0 500a 	str.w	r5, [r0, #10]
 8004c30:	2a0a      	cmp	r2, #10
 8004c32:	d02e      	beq.n	8004c92 <pb_field_iter_find_extension+0x92>
 8004c34:	459e      	cmp	lr, r3
 8004c36:	d031      	beq.n	8004c9c <pb_field_iter_find_extension+0x9c>
 8004c38:	3301      	adds	r3, #1
 8004c3a:	46a4      	mov	ip, r4
 8004c3c:	b29b      	uxth	r3, r3
 8004c3e:	42b3      	cmp	r3, r6
 8004c40:	d2ee      	bcs.n	8004c20 <pb_field_iter_find_extension+0x20>
 8004c42:	8941      	ldrh	r1, [r0, #10]
 8004c44:	f8b0 c00c 	ldrh.w	ip, [r0, #12]
 8004c48:	f854 2021 	ldr.w	r2, [r4, r1, lsl #2]
 8004c4c:	f002 0803 	and.w	r8, r2, #3
 8004c50:	0a12      	lsrs	r2, r2, #8
 8004c52:	fa07 f808 	lsl.w	r8, r7, r8
 8004c56:	f002 0930 	and.w	r9, r2, #48	; 0x30
 8004c5a:	f002 020e 	and.w	r2, r2, #14
 8004c5e:	4441      	add	r1, r8
 8004c60:	f1b9 0f00 	cmp.w	r9, #0
 8004c64:	bf08      	it	eq
 8004c66:	f10c 0c01 	addeq.w	ip, ip, #1
 8004c6a:	f8b0 800e 	ldrh.w	r8, [r0, #14]
 8004c6e:	b289      	uxth	r1, r1
 8004c70:	f8a0 c00c 	strh.w	ip, [r0, #12]
 8004c74:	eb04 0c81 	add.w	ip, r4, r1, lsl #2
 8004c78:	8141      	strh	r1, [r0, #10]
 8004c7a:	2a08      	cmp	r2, #8
 8004c7c:	bf14      	ite	ne
 8004c7e:	4641      	movne	r1, r8
 8004c80:	f108 0101 	addeq.w	r1, r8, #1
 8004c84:	f8dc 2000 	ldr.w	r2, [ip]
 8004c88:	81c1      	strh	r1, [r0, #14]
 8004c8a:	f3c2 2203 	ubfx	r2, r2, #8, #4
 8004c8e:	2a0a      	cmp	r2, #10
 8004c90:	d1d0      	bne.n	8004c34 <pb_field_iter_find_extension+0x34>
 8004c92:	8103      	strh	r3, [r0, #8]
 8004c94:	e8bd 43f8 	ldmia.w	sp!, {r3, r4, r5, r6, r7, r8, r9, lr}
 8004c98:	f7ff bc5c 	b.w	8004554 <load_descriptor_values>
 8004c9c:	f8a0 e008 	strh.w	lr, [r0, #8]
 8004ca0:	f7ff fc58 	bl	8004554 <load_descriptor_values>
 8004ca4:	2000      	movs	r0, #0
 8004ca6:	e8bd 83f8 	ldmia.w	sp!, {r3, r4, r5, r6, r7, r8, r9, pc}
 8004caa:	2001      	movs	r0, #1
 8004cac:	e8bd 83f8 	ldmia.w	sp!, {r3, r4, r5, r6, r7, r8, r9, pc}

08004cb0 <buf_read>:
 8004cb0:	b510      	push	{r4, lr}
 8004cb2:	6844      	ldr	r4, [r0, #4]
 8004cb4:	18a3      	adds	r3, r4, r2
 8004cb6:	6043      	str	r3, [r0, #4]
 8004cb8:	b119      	cbz	r1, 8004cc2 <buf_read+0x12>
 8004cba:	4608      	mov	r0, r1
 8004cbc:	4621      	mov	r1, r4
 8004cbe:	f000 ff33 	bl	8005b28 <memcpy>
 8004cc2:	2001      	movs	r0, #1
 8004cc4:	bd10      	pop	{r4, pc}
 8004cc6:	bf00      	nop

08004cc8 <pb_decode_varint32_eof>:
 8004cc8:	6883      	ldr	r3, [r0, #8]
 8004cca:	e92d 41f0 	stmdb	sp!, {r4, r5, r6, r7, r8, lr}
 8004cce:	4604      	mov	r4, r0
 8004cd0:	b082      	sub	sp, #8
 8004cd2:	4615      	mov	r5, r2
 8004cd4:	2b00      	cmp	r3, #0
 8004cd6:	d07b      	beq.n	8004dd0 <pb_decode_varint32_eof+0x108>
 8004cd8:	460e      	mov	r6, r1
 8004cda:	6803      	ldr	r3, [r0, #0]
 8004cdc:	2201      	movs	r2, #1
 8004cde:	f10d 0107 	add.w	r1, sp, #7
 8004ce2:	4798      	blx	r3
 8004ce4:	4607      	mov	r7, r0
 8004ce6:	2800      	cmp	r0, #0
 8004ce8:	d034      	beq.n	8004d54 <pb_decode_varint32_eof+0x8c>
 8004cea:	68a3      	ldr	r3, [r4, #8]
 8004cec:	f99d 2007 	ldrsb.w	r2, [sp, #7]
 8004cf0:	3b01      	subs	r3, #1
 8004cf2:	f89d 8007 	ldrb.w	r8, [sp, #7]
 8004cf6:	2a00      	cmp	r2, #0
 8004cf8:	60a3      	str	r3, [r4, #8]
 8004cfa:	db05      	blt.n	8004d08 <pb_decode_varint32_eof+0x40>
 8004cfc:	4638      	mov	r0, r7
 8004cfe:	f8c6 8000 	str.w	r8, [r6]
 8004d02:	b002      	add	sp, #8
 8004d04:	e8bd 81f0 	ldmia.w	sp!, {r4, r5, r6, r7, r8, pc}
 8004d08:	f008 087f 	and.w	r8, r8, #127	; 0x7f
 8004d0c:	2507      	movs	r5, #7
 8004d0e:	2b00      	cmp	r3, #0
 8004d10:	d03e      	beq.n	8004d90 <pb_decode_varint32_eof+0xc8>
 8004d12:	6823      	ldr	r3, [r4, #0]
 8004d14:	2201      	movs	r2, #1
 8004d16:	f10d 0107 	add.w	r1, sp, #7
 8004d1a:	4620      	mov	r0, r4
 8004d1c:	4798      	blx	r3
 8004d1e:	2800      	cmp	r0, #0
 8004d20:	d047      	beq.n	8004db2 <pb_decode_varint32_eof+0xea>
 8004d22:	68a3      	ldr	r3, [r4, #8]
 8004d24:	2d1f      	cmp	r5, #31
 8004d26:	f89d 2007 	ldrb.w	r2, [sp, #7]
 8004d2a:	f103 33ff 	add.w	r3, r3, #4294967295
 8004d2e:	60a3      	str	r3, [r4, #8]
 8004d30:	d921      	bls.n	8004d76 <pb_decode_varint32_eof+0xae>
 8004d32:	2d3e      	cmp	r5, #62	; 0x3e
 8004d34:	d934      	bls.n	8004da0 <pb_decode_varint32_eof+0xd8>
 8004d36:	0651      	lsls	r1, r2, #25
 8004d38:	d02f      	beq.n	8004d9a <pb_decode_varint32_eof+0xd2>
 8004d3a:	2a01      	cmp	r2, #1
 8004d3c:	d102      	bne.n	8004d44 <pb_decode_varint32_eof+0x7c>
 8004d3e:	f1b8 0f00 	cmp.w	r8, #0
 8004d42:	db2a      	blt.n	8004d9a <pb_decode_varint32_eof+0xd2>
 8004d44:	68e3      	ldr	r3, [r4, #12]
 8004d46:	2b00      	cmp	r3, #0
 8004d48:	d049      	beq.n	8004dde <pb_decode_varint32_eof+0x116>
 8004d4a:	2000      	movs	r0, #0
 8004d4c:	60e3      	str	r3, [r4, #12]
 8004d4e:	b002      	add	sp, #8
 8004d50:	e8bd 81f0 	ldmia.w	sp!, {r4, r5, r6, r7, r8, pc}
 8004d54:	68e2      	ldr	r2, [r4, #12]
 8004d56:	2a00      	cmp	r2, #0
 8004d58:	d03f      	beq.n	8004dda <pb_decode_varint32_eof+0x112>
 8004d5a:	68a3      	ldr	r3, [r4, #8]
 8004d5c:	1e28      	subs	r0, r5, #0
 8004d5e:	60e2      	str	r2, [r4, #12]
 8004d60:	bf18      	it	ne
 8004d62:	2001      	movne	r0, #1
 8004d64:	2b00      	cmp	r3, #0
 8004d66:	bf18      	it	ne
 8004d68:	2000      	movne	r0, #0
 8004d6a:	2800      	cmp	r0, #0
 8004d6c:	d0c9      	beq.n	8004d02 <pb_decode_varint32_eof+0x3a>
 8004d6e:	2301      	movs	r3, #1
 8004d70:	2000      	movs	r0, #0
 8004d72:	702b      	strb	r3, [r5, #0]
 8004d74:	e7c5      	b.n	8004d02 <pb_decode_varint32_eof+0x3a>
 8004d76:	2d1c      	cmp	r5, #28
 8004d78:	d020      	beq.n	8004dbc <pb_decode_varint32_eof+0xf4>
 8004d7a:	f002 017f 	and.w	r1, r2, #127	; 0x7f
 8004d7e:	40a9      	lsls	r1, r5
 8004d80:	ea48 0801 	orr.w	r8, r8, r1
 8004d84:	0610      	lsls	r0, r2, #24
 8004d86:	f105 0507 	add.w	r5, r5, #7
 8004d8a:	d5b7      	bpl.n	8004cfc <pb_decode_varint32_eof+0x34>
 8004d8c:	2b00      	cmp	r3, #0
 8004d8e:	d1c0      	bne.n	8004d12 <pb_decode_varint32_eof+0x4a>
 8004d90:	68e3      	ldr	r3, [r4, #12]
 8004d92:	2b00      	cmp	r3, #0
 8004d94:	d1d9      	bne.n	8004d4a <pb_decode_varint32_eof+0x82>
 8004d96:	4b13      	ldr	r3, [pc, #76]	; (8004de4 <pb_decode_varint32_eof+0x11c>)
 8004d98:	e7d7      	b.n	8004d4a <pb_decode_varint32_eof+0x82>
 8004d9a:	2d3f      	cmp	r5, #63	; 0x3f
 8004d9c:	d0f2      	beq.n	8004d84 <pb_decode_varint32_eof+0xbc>
 8004d9e:	e7d1      	b.n	8004d44 <pb_decode_varint32_eof+0x7c>
 8004da0:	0651      	lsls	r1, r2, #25
 8004da2:	d0ef      	beq.n	8004d84 <pb_decode_varint32_eof+0xbc>
 8004da4:	2aff      	cmp	r2, #255	; 0xff
 8004da6:	d1cd      	bne.n	8004d44 <pb_decode_varint32_eof+0x7c>
 8004da8:	f1b8 0f00 	cmp.w	r8, #0
 8004dac:	daca      	bge.n	8004d44 <pb_decode_varint32_eof+0x7c>
 8004dae:	3507      	adds	r5, #7
 8004db0:	e7ad      	b.n	8004d0e <pb_decode_varint32_eof+0x46>
 8004db2:	68e3      	ldr	r3, [r4, #12]
 8004db4:	2b00      	cmp	r3, #0
 8004db6:	d1c9      	bne.n	8004d4c <pb_decode_varint32_eof+0x84>
 8004db8:	4b0b      	ldr	r3, [pc, #44]	; (8004de8 <pb_decode_varint32_eof+0x120>)
 8004dba:	e7c7      	b.n	8004d4c <pb_decode_varint32_eof+0x84>
 8004dbc:	f012 0f70 	tst.w	r2, #112	; 0x70
 8004dc0:	d003      	beq.n	8004dca <pb_decode_varint32_eof+0x102>
 8004dc2:	f002 0178 	and.w	r1, r2, #120	; 0x78
 8004dc6:	2978      	cmp	r1, #120	; 0x78
 8004dc8:	d1bc      	bne.n	8004d44 <pb_decode_varint32_eof+0x7c>
 8004dca:	ea48 7802 	orr.w	r8, r8, r2, lsl #28
 8004dce:	e7d9      	b.n	8004d84 <pb_decode_varint32_eof+0xbc>
 8004dd0:	68c2      	ldr	r2, [r0, #12]
 8004dd2:	2a00      	cmp	r2, #0
 8004dd4:	d1c2      	bne.n	8004d5c <pb_decode_varint32_eof+0x94>
 8004dd6:	4a03      	ldr	r2, [pc, #12]	; (8004de4 <pb_decode_varint32_eof+0x11c>)
 8004dd8:	e7c0      	b.n	8004d5c <pb_decode_varint32_eof+0x94>
 8004dda:	4a03      	ldr	r2, [pc, #12]	; (8004de8 <pb_decode_varint32_eof+0x120>)
 8004ddc:	e7bd      	b.n	8004d5a <pb_decode_varint32_eof+0x92>
 8004dde:	4b03      	ldr	r3, [pc, #12]	; (8004dec <pb_decode_varint32_eof+0x124>)
 8004de0:	e7b3      	b.n	8004d4a <pb_decode_varint32_eof+0x82>
 8004de2:	bf00      	nop
 8004de4:	08005bf8 	.word	0x08005bf8
 8004de8:	08005c08 	.word	0x08005c08
 8004dec:	08005c14 	.word	0x08005c14

08004df0 <pb_read>:
 8004df0:	b1fa      	cbz	r2, 8004e32 <pb_read+0x42>
 8004df2:	b570      	push	{r4, r5, r6, lr}
 8004df4:	4604      	mov	r4, r0
 8004df6:	b084      	sub	sp, #16
 8004df8:	4615      	mov	r5, r2
 8004dfa:	b309      	cbz	r1, 8004e40 <pb_read+0x50>
 8004dfc:	68a3      	ldr	r3, [r4, #8]
 8004dfe:	42ab      	cmp	r3, r5
 8004e00:	d311      	bcc.n	8004e26 <pb_read+0x36>
 8004e02:	6823      	ldr	r3, [r4, #0]
 8004e04:	462a      	mov	r2, r5
 8004e06:	4620      	mov	r0, r4
 8004e08:	4798      	blx	r3
 8004e0a:	b1a0      	cbz	r0, 8004e36 <pb_read+0x46>
 8004e0c:	68a3      	ldr	r3, [r4, #8]
 8004e0e:	42ab      	cmp	r3, r5
 8004e10:	bf34      	ite	cc
 8004e12:	2300      	movcc	r3, #0
 8004e14:	1b5b      	subcs	r3, r3, r5
 8004e16:	60a3      	str	r3, [r4, #8]
 8004e18:	b004      	add	sp, #16
 8004e1a:	bd70      	pop	{r4, r5, r6, pc}
 8004e1c:	3d10      	subs	r5, #16
 8004e1e:	2300      	movs	r3, #0
 8004e20:	2d10      	cmp	r5, #16
 8004e22:	60a3      	str	r3, [r4, #8]
 8004e24:	d927      	bls.n	8004e76 <pb_read+0x86>
 8004e26:	68e3      	ldr	r3, [r4, #12]
 8004e28:	b35b      	cbz	r3, 8004e82 <pb_read+0x92>
 8004e2a:	2000      	movs	r0, #0
 8004e2c:	60e3      	str	r3, [r4, #12]
 8004e2e:	b004      	add	sp, #16
 8004e30:	bd70      	pop	{r4, r5, r6, pc}
 8004e32:	2001      	movs	r0, #1
 8004e34:	4770      	bx	lr
 8004e36:	68e3      	ldr	r3, [r4, #12]
 8004e38:	2b00      	cmp	r3, #0
 8004e3a:	d1f7      	bne.n	8004e2c <pb_read+0x3c>
 8004e3c:	4b13      	ldr	r3, [pc, #76]	; (8004e8c <pb_read+0x9c>)
 8004e3e:	e7f5      	b.n	8004e2c <pb_read+0x3c>
 8004e40:	4b13      	ldr	r3, [pc, #76]	; (8004e90 <pb_read+0xa0>)
 8004e42:	6802      	ldr	r2, [r0, #0]
 8004e44:	429a      	cmp	r2, r3
 8004e46:	d0d9      	beq.n	8004dfc <pb_read+0xc>
 8004e48:	2d10      	cmp	r5, #16
 8004e4a:	d91c      	bls.n	8004e86 <pb_read+0x96>
 8004e4c:	6881      	ldr	r1, [r0, #8]
 8004e4e:	290f      	cmp	r1, #15
 8004e50:	f04f 0210 	mov.w	r2, #16
 8004e54:	466e      	mov	r6, sp
 8004e56:	d9e6      	bls.n	8004e26 <pb_read+0x36>
 8004e58:	6823      	ldr	r3, [r4, #0]
 8004e5a:	4669      	mov	r1, sp
 8004e5c:	4620      	mov	r0, r4
 8004e5e:	4798      	blx	r3
 8004e60:	2800      	cmp	r0, #0
 8004e62:	d0e8      	beq.n	8004e36 <pb_read+0x46>
 8004e64:	68a3      	ldr	r3, [r4, #8]
 8004e66:	2b0f      	cmp	r3, #15
 8004e68:	f1a3 0110 	sub.w	r1, r3, #16
 8004e6c:	d9d6      	bls.n	8004e1c <pb_read+0x2c>
 8004e6e:	3d10      	subs	r5, #16
 8004e70:	60a1      	str	r1, [r4, #8]
 8004e72:	2d10      	cmp	r5, #16
 8004e74:	d8eb      	bhi.n	8004e4e <pb_read+0x5e>
 8004e76:	462a      	mov	r2, r5
 8004e78:	4631      	mov	r1, r6
 8004e7a:	4620      	mov	r0, r4
 8004e7c:	f7ff ffb8 	bl	8004df0 <pb_read>
 8004e80:	e7ca      	b.n	8004e18 <pb_read+0x28>
 8004e82:	4b04      	ldr	r3, [pc, #16]	; (8004e94 <pb_read+0xa4>)
 8004e84:	e7d1      	b.n	8004e2a <pb_read+0x3a>
 8004e86:	466e      	mov	r6, sp
 8004e88:	e7f5      	b.n	8004e76 <pb_read+0x86>
 8004e8a:	bf00      	nop
 8004e8c:	08005c08 	.word	0x08005c08
 8004e90:	08004cb1 	.word	0x08004cb1
 8004e94:	08005bf8 	.word	0x08005bf8

08004e98 <pb_istream_from_buffer>:
 8004e98:	b410      	push	{r4}
 8004e9a:	4c04      	ldr	r4, [pc, #16]	; (8004eac <pb_istream_from_buffer+0x14>)
 8004e9c:	6004      	str	r4, [r0, #0]
 8004e9e:	2400      	movs	r4, #0
 8004ea0:	e9c0 1201 	strd	r1, r2, [r0, #4]
 8004ea4:	60c4      	str	r4, [r0, #12]
 8004ea6:	f85d 4b04 	ldr.w	r4, [sp], #4
 8004eaa:	4770      	bx	lr
 8004eac:	08004cb1 	.word	0x08004cb1

08004eb0 <pb_decode_varint>:
 8004eb0:	e92d 43f0 	stmdb	sp!, {r4, r5, r6, r7, r8, r9, lr}
 8004eb4:	2700      	movs	r7, #0
 8004eb6:	b083      	sub	sp, #12
 8004eb8:	4605      	mov	r5, r0
 8004eba:	4688      	mov	r8, r1
 8004ebc:	46b9      	mov	r9, r7
 8004ebe:	463c      	mov	r4, r7
 8004ec0:	6886      	ldr	r6, [r0, #8]
 8004ec2:	e024      	b.n	8004f0e <pb_decode_varint+0x5e>
 8004ec4:	682b      	ldr	r3, [r5, #0]
 8004ec6:	4798      	blx	r3
 8004ec8:	b370      	cbz	r0, 8004f28 <pb_decode_varint+0x78>
 8004eca:	68ae      	ldr	r6, [r5, #8]
 8004ecc:	2c3e      	cmp	r4, #62	; 0x3e
 8004ece:	f89d c007 	ldrb.w	ip, [sp, #7]
 8004ed2:	f106 36ff 	add.w	r6, r6, #4294967295
 8004ed6:	60ae      	str	r6, [r5, #8]
 8004ed8:	d902      	bls.n	8004ee0 <pb_decode_varint+0x30>
 8004eda:	f01c 0ffe 	tst.w	ip, #254	; 0xfe
 8004ede:	d12f      	bne.n	8004f40 <pb_decode_varint+0x90>
 8004ee0:	f00c 017f 	and.w	r1, ip, #127	; 0x7f
 8004ee4:	f1a4 0320 	sub.w	r3, r4, #32
 8004ee8:	f1c4 0220 	rsb	r2, r4, #32
 8004eec:	f01c 0f80 	tst.w	ip, #128	; 0x80
 8004ef0:	fa01 f303 	lsl.w	r3, r1, r3
 8004ef4:	fa01 fe04 	lsl.w	lr, r1, r4
 8004ef8:	fa21 f202 	lsr.w	r2, r1, r2
 8004efc:	f104 0407 	add.w	r4, r4, #7
 8004f00:	ea4e 0707 	orr.w	r7, lr, r7
 8004f04:	ea43 0302 	orr.w	r3, r3, r2
 8004f08:	ea43 0909 	orr.w	r9, r3, r9
 8004f0c:	d013      	beq.n	8004f36 <pb_decode_varint+0x86>
 8004f0e:	2201      	movs	r2, #1
 8004f10:	f10d 0107 	add.w	r1, sp, #7
 8004f14:	4628      	mov	r0, r5
 8004f16:	2e00      	cmp	r6, #0
 8004f18:	d1d4      	bne.n	8004ec4 <pb_decode_varint+0x14>
 8004f1a:	68eb      	ldr	r3, [r5, #12]
 8004f1c:	b14b      	cbz	r3, 8004f32 <pb_decode_varint+0x82>
 8004f1e:	2000      	movs	r0, #0
 8004f20:	60eb      	str	r3, [r5, #12]
 8004f22:	b003      	add	sp, #12
 8004f24:	e8bd 83f0 	ldmia.w	sp!, {r4, r5, r6, r7, r8, r9, pc}
 8004f28:	68eb      	ldr	r3, [r5, #12]
 8004f2a:	2b00      	cmp	r3, #0
 8004f2c:	d1f8      	bne.n	8004f20 <pb_decode_varint+0x70>
 8004f2e:	4b07      	ldr	r3, [pc, #28]	; (8004f4c <pb_decode_varint+0x9c>)
 8004f30:	e7f6      	b.n	8004f20 <pb_decode_varint+0x70>
 8004f32:	4b07      	ldr	r3, [pc, #28]	; (8004f50 <pb_decode_varint+0xa0>)
 8004f34:	e7f3      	b.n	8004f1e <pb_decode_varint+0x6e>
 8004f36:	e9c8 7900 	strd	r7, r9, [r8]
 8004f3a:	b003      	add	sp, #12
 8004f3c:	e8bd 83f0 	ldmia.w	sp!, {r4, r5, r6, r7, r8, r9, pc}
 8004f40:	68eb      	ldr	r3, [r5, #12]
 8004f42:	2b00      	cmp	r3, #0
 8004f44:	d1eb      	bne.n	8004f1e <pb_decode_varint+0x6e>
 8004f46:	4b03      	ldr	r3, [pc, #12]	; (8004f54 <pb_decode_varint+0xa4>)
 8004f48:	e7e9      	b.n	8004f1e <pb_decode_varint+0x6e>
 8004f4a:	bf00      	nop
 8004f4c:	08005c08 	.word	0x08005c08
 8004f50:	08005bf8 	.word	0x08005bf8
 8004f54:	08005c14 	.word	0x08005c14

08004f58 <pb_skip_field>:
 8004f58:	b530      	push	{r4, r5, lr}
 8004f5a:	4604      	mov	r4, r0
 8004f5c:	b083      	sub	sp, #12
 8004f5e:	2905      	cmp	r1, #5
 8004f60:	d826      	bhi.n	8004fb0 <pb_skip_field+0x58>
 8004f62:	e8df f001 	tbb	[pc, r1]
 8004f66:	1214      	.short	0x1214
 8004f68:	0325250b 	.word	0x0325250b
 8004f6c:	2204      	movs	r2, #4
 8004f6e:	2100      	movs	r1, #0
 8004f70:	4620      	mov	r0, r4
 8004f72:	b003      	add	sp, #12
 8004f74:	e8bd 4030 	ldmia.w	sp!, {r4, r5, lr}
 8004f78:	f7ff bf3a 	b.w	8004df0 <pb_read>
 8004f7c:	2200      	movs	r2, #0
 8004f7e:	a901      	add	r1, sp, #4
 8004f80:	f7ff fea2 	bl	8004cc8 <pb_decode_varint32_eof>
 8004f84:	b1c0      	cbz	r0, 8004fb8 <pb_skip_field+0x60>
 8004f86:	9a01      	ldr	r2, [sp, #4]
 8004f88:	e7f1      	b.n	8004f6e <pb_skip_field+0x16>
 8004f8a:	2208      	movs	r2, #8
 8004f8c:	e7ef      	b.n	8004f6e <pb_skip_field+0x16>
 8004f8e:	6885      	ldr	r5, [r0, #8]
 8004f90:	2201      	movs	r2, #1
 8004f92:	a901      	add	r1, sp, #4
 8004f94:	b1b5      	cbz	r5, 8004fc4 <pb_skip_field+0x6c>
 8004f96:	6823      	ldr	r3, [r4, #0]
 8004f98:	4620      	mov	r0, r4
 8004f9a:	4798      	blx	r3
 8004f9c:	b1b8      	cbz	r0, 8004fce <pb_skip_field+0x76>
 8004f9e:	68a3      	ldr	r3, [r4, #8]
 8004fa0:	1e5d      	subs	r5, r3, #1
 8004fa2:	b15b      	cbz	r3, 8004fbc <pb_skip_field+0x64>
 8004fa4:	f99d 3004 	ldrsb.w	r3, [sp, #4]
 8004fa8:	60a5      	str	r5, [r4, #8]
 8004faa:	2b00      	cmp	r3, #0
 8004fac:	dbf0      	blt.n	8004f90 <pb_skip_field+0x38>
 8004fae:	e003      	b.n	8004fb8 <pb_skip_field+0x60>
 8004fb0:	68c3      	ldr	r3, [r0, #12]
 8004fb2:	b18b      	cbz	r3, 8004fd8 <pb_skip_field+0x80>
 8004fb4:	2000      	movs	r0, #0
 8004fb6:	60e3      	str	r3, [r4, #12]
 8004fb8:	b003      	add	sp, #12
 8004fba:	bd30      	pop	{r4, r5, pc}
 8004fbc:	f99d 3004 	ldrsb.w	r3, [sp, #4]
 8004fc0:	2b00      	cmp	r3, #0
 8004fc2:	daf9      	bge.n	8004fb8 <pb_skip_field+0x60>
 8004fc4:	68e3      	ldr	r3, [r4, #12]
 8004fc6:	2b00      	cmp	r3, #0
 8004fc8:	d1f4      	bne.n	8004fb4 <pb_skip_field+0x5c>
 8004fca:	4b04      	ldr	r3, [pc, #16]	; (8004fdc <pb_skip_field+0x84>)
 8004fcc:	e7f2      	b.n	8004fb4 <pb_skip_field+0x5c>
 8004fce:	68e3      	ldr	r3, [r4, #12]
 8004fd0:	2b00      	cmp	r3, #0
 8004fd2:	d1f0      	bne.n	8004fb6 <pb_skip_field+0x5e>
 8004fd4:	4b02      	ldr	r3, [pc, #8]	; (8004fe0 <pb_skip_field+0x88>)
 8004fd6:	e7ee      	b.n	8004fb6 <pb_skip_field+0x5e>
 8004fd8:	4b02      	ldr	r3, [pc, #8]	; (8004fe4 <pb_skip_field+0x8c>)
 8004fda:	e7eb      	b.n	8004fb4 <pb_skip_field+0x5c>
 8004fdc:	08005bf8 	.word	0x08005bf8
 8004fe0:	08005c08 	.word	0x08005c08
 8004fe4:	08005c24 	.word	0x08005c24

08004fe8 <pb_decode_inner>:
 8004fe8:	e92d 4ff0 	stmdb	sp!, {r4, r5, r6, r7, r8, r9, sl, fp, lr}
 8004fec:	b09d      	sub	sp, #116	; 0x74
 8004fee:	2400      	movs	r4, #0
 8004ff0:	2600      	movs	r6, #0
 8004ff2:	2700      	movs	r7, #0
 8004ff4:	4605      	mov	r5, r0
 8004ff6:	a808      	add	r0, sp, #32
 8004ff8:	4698      	mov	r8, r3
 8004ffa:	9303      	str	r3, [sp, #12]
 8004ffc:	f8ad 4016 	strh.w	r4, [sp, #22]
 8005000:	e9cd 6706 	strd	r6, r7, [sp, #24]
 8005004:	f7ff fb28 	bl	8004658 <pb_field_iter_begin>
 8005008:	b118      	cbz	r0, 8005012 <pb_decode_inner+0x2a>
 800500a:	ea5f 71c8 	movs.w	r1, r8, lsl #31
 800500e:	f140 80c9 	bpl.w	80051a4 <pb_decode_inner+0x1bc>
 8005012:	68ab      	ldr	r3, [r5, #8]
 8005014:	2b00      	cmp	r3, #0
 8005016:	f000 80d2 	beq.w	80051be <pb_decode_inner+0x1d6>
 800501a:	2300      	movs	r3, #0
 800501c:	f64f 72ff 	movw	r2, #65535	; 0xffff
 8005020:	461c      	mov	r4, r3
 8005022:	469a      	mov	sl, r3
 8005024:	4699      	mov	r9, r3
 8005026:	e9cd 2301 	strd	r2, r3, [sp, #4]
 800502a:	f10d 0215 	add.w	r2, sp, #21
 800502e:	a912      	add	r1, sp, #72	; 0x48
 8005030:	4628      	mov	r0, r5
 8005032:	f88d a015 	strb.w	sl, [sp, #21]
 8005036:	f7ff fe47 	bl	8004cc8 <pb_decode_varint32_eof>
 800503a:	2800      	cmp	r0, #0
 800503c:	d070      	beq.n	8005120 <pb_decode_inner+0x138>
 800503e:	9e12      	ldr	r6, [sp, #72]	; 0x48
 8005040:	f006 0807 	and.w	r8, r6, #7
 8005044:	08f6      	lsrs	r6, r6, #3
 8005046:	f000 80f2 	beq.w	800522e <pb_decode_inner+0x246>
 800504a:	4631      	mov	r1, r6
 800504c:	a808      	add	r0, sp, #32
 800504e:	f7ff fcd5 	bl	80049fc <pb_field_iter_find>
 8005052:	b340      	cbz	r0, 80050a6 <pb_decode_inner+0xbe>
 8005054:	f89d 3036 	ldrb.w	r3, [sp, #54]	; 0x36
 8005058:	f003 020f 	and.w	r2, r3, #15
 800505c:	2a0a      	cmp	r2, #10
 800505e:	d022      	beq.n	80050a6 <pb_decode_inner+0xbe>
 8005060:	f003 0330 	and.w	r3, r3, #48	; 0x30
 8005064:	2b20      	cmp	r3, #32
 8005066:	f000 8086 	beq.w	8005176 <pb_decode_inner+0x18e>
 800506a:	b98b      	cbnz	r3, 8005090 <pb_decode_inner+0xa8>
 800506c:	f8bd 302c 	ldrh.w	r3, [sp, #44]	; 0x2c
 8005070:	2b3f      	cmp	r3, #63	; 0x3f
 8005072:	d80d      	bhi.n	8005090 <pb_decode_inner+0xa8>
 8005074:	095a      	lsrs	r2, r3, #5
 8005076:	a91c      	add	r1, sp, #112	; 0x70
 8005078:	f003 031f 	and.w	r3, r3, #31
 800507c:	eb01 0282 	add.w	r2, r1, r2, lsl #2
 8005080:	2101      	movs	r1, #1
 8005082:	fa01 f303 	lsl.w	r3, r1, r3
 8005086:	f852 1c58 	ldr.w	r1, [r2, #-88]
 800508a:	430b      	orrs	r3, r1
 800508c:	f842 3c58 	str.w	r3, [r2, #-88]
 8005090:	4641      	mov	r1, r8
 8005092:	aa08      	add	r2, sp, #32
 8005094:	4628      	mov	r0, r5
 8005096:	f000 fabd 	bl	8005614 <decode_field>
 800509a:	2800      	cmp	r0, #0
 800509c:	d03c      	beq.n	8005118 <pb_decode_inner+0x130>
 800509e:	68ab      	ldr	r3, [r5, #8]
 80050a0:	2b00      	cmp	r3, #0
 80050a2:	d1c2      	bne.n	800502a <pb_decode_inner+0x42>
 80050a4:	e040      	b.n	8005128 <pb_decode_inner+0x140>
 80050a6:	f1b9 0f00 	cmp.w	r9, #0
 80050aa:	d04c      	beq.n	8005146 <pb_decode_inner+0x15e>
 80050ac:	454e      	cmp	r6, r9
 80050ae:	d32d      	bcc.n	800510c <pb_decode_inner+0x124>
 80050b0:	f8d5 b008 	ldr.w	fp, [r5, #8]
 80050b4:	b354      	cbz	r4, 800510c <pb_decode_inner+0x124>
 80050b6:	9400      	str	r4, [sp, #0]
 80050b8:	6827      	ldr	r7, [r4, #0]
 80050ba:	4643      	mov	r3, r8
 80050bc:	4632      	mov	r2, r6
 80050be:	4621      	mov	r1, r4
 80050c0:	683f      	ldr	r7, [r7, #0]
 80050c2:	4628      	mov	r0, r5
 80050c4:	b157      	cbz	r7, 80050dc <pb_decode_inner+0xf4>
 80050c6:	47b8      	blx	r7
 80050c8:	b330      	cbz	r0, 8005118 <pb_decode_inner+0x130>
 80050ca:	68a4      	ldr	r4, [r4, #8]
 80050cc:	68ab      	ldr	r3, [r5, #8]
 80050ce:	b1d4      	cbz	r4, 8005106 <pb_decode_inner+0x11e>
 80050d0:	459b      	cmp	fp, r3
 80050d2:	d0f1      	beq.n	80050b8 <pb_decode_inner+0xd0>
 80050d4:	9c00      	ldr	r4, [sp, #0]
 80050d6:	2b00      	cmp	r3, #0
 80050d8:	d1a7      	bne.n	800502a <pb_decode_inner+0x42>
 80050da:	e025      	b.n	8005128 <pb_decode_inner+0x140>
 80050dc:	a812      	add	r0, sp, #72	; 0x48
 80050de:	f7ff fb37 	bl	8004750 <pb_field_iter_begin_extension>
 80050e2:	2800      	cmp	r0, #0
 80050e4:	d042      	beq.n	800516c <pb_decode_inner+0x184>
 80050e6:	f8bd 3058 	ldrh.w	r3, [sp, #88]	; 0x58
 80050ea:	429e      	cmp	r6, r3
 80050ec:	d1ed      	bne.n	80050ca <pb_decode_inner+0xe2>
 80050ee:	9b13      	ldr	r3, [sp, #76]	; 0x4c
 80050f0:	2b00      	cmp	r3, #0
 80050f2:	d0ea      	beq.n	80050ca <pb_decode_inner+0xe2>
 80050f4:	f04f 0301 	mov.w	r3, #1
 80050f8:	aa12      	add	r2, sp, #72	; 0x48
 80050fa:	4641      	mov	r1, r8
 80050fc:	4628      	mov	r0, r5
 80050fe:	7323      	strb	r3, [r4, #12]
 8005100:	f000 fa88 	bl	8005614 <decode_field>
 8005104:	e7e0      	b.n	80050c8 <pb_decode_inner+0xe0>
 8005106:	455b      	cmp	r3, fp
 8005108:	d1e4      	bne.n	80050d4 <pb_decode_inner+0xec>
 800510a:	9c00      	ldr	r4, [sp, #0]
 800510c:	4641      	mov	r1, r8
 800510e:	4628      	mov	r0, r5
 8005110:	f7ff ff22 	bl	8004f58 <pb_skip_field>
 8005114:	2800      	cmp	r0, #0
 8005116:	d1c2      	bne.n	800509e <pb_decode_inner+0xb6>
 8005118:	2000      	movs	r0, #0
 800511a:	b01d      	add	sp, #116	; 0x74
 800511c:	e8bd 8ff0 	ldmia.w	sp!, {r4, r5, r6, r7, r8, r9, sl, fp, pc}
 8005120:	f89d 3015 	ldrb.w	r3, [sp, #21]
 8005124:	2b00      	cmp	r3, #0
 8005126:	d0f7      	beq.n	8005118 <pb_decode_inner+0x130>
 8005128:	f64f 73ff 	movw	r3, #65535	; 0xffff
 800512c:	9a01      	ldr	r2, [sp, #4]
 800512e:	429a      	cmp	r2, r3
 8005130:	d045      	beq.n	80051be <pb_decode_inner+0x1d6>
 8005132:	f8bd 3016 	ldrh.w	r3, [sp, #22]
 8005136:	9a02      	ldr	r2, [sp, #8]
 8005138:	4293      	cmp	r3, r2
 800513a:	d040      	beq.n	80051be <pb_decode_inner+0x1d6>
 800513c:	68eb      	ldr	r3, [r5, #12]
 800513e:	2b00      	cmp	r3, #0
 8005140:	d14f      	bne.n	80051e2 <pb_decode_inner+0x1fa>
 8005142:	4b41      	ldr	r3, [pc, #260]	; (8005248 <pb_decode_inner+0x260>)
 8005144:	e04d      	b.n	80051e2 <pb_decode_inner+0x1fa>
 8005146:	a808      	add	r0, sp, #32
 8005148:	f7ff fd5a 	bl	8004c00 <pb_field_iter_find_extension>
 800514c:	b140      	cbz	r0, 8005160 <pb_decode_inner+0x178>
 800514e:	9b0f      	ldr	r3, [sp, #60]	; 0x3c
 8005150:	f8bd 9030 	ldrh.w	r9, [sp, #48]	; 0x30
 8005154:	681c      	ldr	r4, [r3, #0]
 8005156:	2c00      	cmp	r4, #0
 8005158:	d064      	beq.n	8005224 <pb_decode_inner+0x23c>
 800515a:	45b1      	cmp	r9, r6
 800515c:	d8d6      	bhi.n	800510c <pb_decode_inner+0x124>
 800515e:	e001      	b.n	8005164 <pb_decode_inner+0x17c>
 8005160:	2c00      	cmp	r4, #0
 8005162:	d05f      	beq.n	8005224 <pb_decode_inner+0x23c>
 8005164:	f8d5 b008 	ldr.w	fp, [r5, #8]
 8005168:	9400      	str	r4, [sp, #0]
 800516a:	e7a5      	b.n	80050b8 <pb_decode_inner+0xd0>
 800516c:	68eb      	ldr	r3, [r5, #12]
 800516e:	2b00      	cmp	r3, #0
 8005170:	d05b      	beq.n	800522a <pb_decode_inner+0x242>
 8005172:	60eb      	str	r3, [r5, #12]
 8005174:	e7d0      	b.n	8005118 <pb_decode_inner+0x130>
 8005176:	ab0d      	add	r3, sp, #52	; 0x34
 8005178:	9a10      	ldr	r2, [sp, #64]	; 0x40
 800517a:	429a      	cmp	r2, r3
 800517c:	d188      	bne.n	8005090 <pb_decode_inner+0xa8>
 800517e:	f8bd 3028 	ldrh.w	r3, [sp, #40]	; 0x28
 8005182:	9901      	ldr	r1, [sp, #4]
 8005184:	428b      	cmp	r3, r1
 8005186:	d049      	beq.n	800521c <pb_decode_inner+0x234>
 8005188:	f8bd 2016 	ldrh.w	r2, [sp, #22]
 800518c:	9802      	ldr	r0, [sp, #8]
 800518e:	4282      	cmp	r2, r0
 8005190:	d03e      	beq.n	8005210 <pb_decode_inner+0x228>
 8005192:	f64f 72ff 	movw	r2, #65535	; 0xffff
 8005196:	4291      	cmp	r1, r2
 8005198:	d03a      	beq.n	8005210 <pb_decode_inner+0x228>
 800519a:	68eb      	ldr	r3, [r5, #12]
 800519c:	2b00      	cmp	r3, #0
 800519e:	d1e8      	bne.n	8005172 <pb_decode_inner+0x18a>
 80051a0:	4b29      	ldr	r3, [pc, #164]	; (8005248 <pb_decode_inner+0x260>)
 80051a2:	e7e6      	b.n	8005172 <pb_decode_inner+0x18a>
 80051a4:	a808      	add	r0, sp, #32
 80051a6:	f000 fba9 	bl	80058fc <pb_message_set_to_defaults>
 80051aa:	2800      	cmp	r0, #0
 80051ac:	f47f af31 	bne.w	8005012 <pb_decode_inner+0x2a>
 80051b0:	68eb      	ldr	r3, [r5, #12]
 80051b2:	2b00      	cmp	r3, #0
 80051b4:	d044      	beq.n	8005240 <pb_decode_inner+0x258>
 80051b6:	60eb      	str	r3, [r5, #12]
 80051b8:	b01d      	add	sp, #116	; 0x74
 80051ba:	e8bd 8ff0 	ldmia.w	sp!, {r4, r5, r6, r7, r8, r9, sl, fp, pc}
 80051be:	9b08      	ldr	r3, [sp, #32]
 80051c0:	8a5b      	ldrh	r3, [r3, #18]
 80051c2:	b31b      	cbz	r3, 800520c <pb_decode_inner+0x224>
 80051c4:	2b40      	cmp	r3, #64	; 0x40
 80051c6:	bf28      	it	cs
 80051c8:	2340      	movcs	r3, #64	; 0x40
 80051ca:	095a      	lsrs	r2, r3, #5
 80051cc:	d00c      	beq.n	80051e8 <pb_decode_inner+0x200>
 80051ce:	9906      	ldr	r1, [sp, #24]
 80051d0:	3101      	adds	r1, #1
 80051d2:	d104      	bne.n	80051de <pb_decode_inner+0x1f6>
 80051d4:	2a02      	cmp	r2, #2
 80051d6:	d106      	bne.n	80051e6 <pb_decode_inner+0x1fe>
 80051d8:	9b07      	ldr	r3, [sp, #28]
 80051da:	3301      	adds	r3, #1
 80051dc:	d016      	beq.n	800520c <pb_decode_inner+0x224>
 80051de:	68eb      	ldr	r3, [r5, #12]
 80051e0:	b383      	cbz	r3, 8005244 <pb_decode_inner+0x25c>
 80051e2:	2000      	movs	r0, #0
 80051e4:	e7e7      	b.n	80051b6 <pb_decode_inner+0x1ce>
 80051e6:	2201      	movs	r2, #1
 80051e8:	f003 011f 	and.w	r1, r3, #31
 80051ec:	06db      	lsls	r3, r3, #27
 80051ee:	d00d      	beq.n	800520c <pb_decode_inner+0x224>
 80051f0:	f1c1 0320 	rsb	r3, r1, #32
 80051f4:	a91c      	add	r1, sp, #112	; 0x70
 80051f6:	b2db      	uxtb	r3, r3
 80051f8:	eb01 0282 	add.w	r2, r1, r2, lsl #2
 80051fc:	f04f 31ff 	mov.w	r1, #4294967295
 8005200:	f852 2c58 	ldr.w	r2, [r2, #-88]
 8005204:	fa21 f303 	lsr.w	r3, r1, r3
 8005208:	429a      	cmp	r2, r3
 800520a:	d1e8      	bne.n	80051de <pb_decode_inner+0x1f6>
 800520c:	2001      	movs	r0, #1
 800520e:	e784      	b.n	800511a <pb_decode_inner+0x132>
 8005210:	9301      	str	r3, [sp, #4]
 8005212:	f8bd 3034 	ldrh.w	r3, [sp, #52]	; 0x34
 8005216:	f8ad a016 	strh.w	sl, [sp, #22]
 800521a:	9302      	str	r3, [sp, #8]
 800521c:	f10d 0316 	add.w	r3, sp, #22
 8005220:	9310      	str	r3, [sp, #64]	; 0x40
 8005222:	e735      	b.n	8005090 <pb_decode_inner+0xa8>
 8005224:	f04f 39ff 	mov.w	r9, #4294967295
 8005228:	e770      	b.n	800510c <pb_decode_inner+0x124>
 800522a:	4b08      	ldr	r3, [pc, #32]	; (800524c <pb_decode_inner+0x264>)
 800522c:	e7a1      	b.n	8005172 <pb_decode_inner+0x18a>
 800522e:	9b03      	ldr	r3, [sp, #12]
 8005230:	075a      	lsls	r2, r3, #29
 8005232:	f53f af79 	bmi.w	8005128 <pb_decode_inner+0x140>
 8005236:	68eb      	ldr	r3, [r5, #12]
 8005238:	2b00      	cmp	r3, #0
 800523a:	d19a      	bne.n	8005172 <pb_decode_inner+0x18a>
 800523c:	4b04      	ldr	r3, [pc, #16]	; (8005250 <pb_decode_inner+0x268>)
 800523e:	e798      	b.n	8005172 <pb_decode_inner+0x18a>
 8005240:	4b04      	ldr	r3, [pc, #16]	; (8005254 <pb_decode_inner+0x26c>)
 8005242:	e7b8      	b.n	80051b6 <pb_decode_inner+0x1ce>
 8005244:	4b04      	ldr	r3, [pc, #16]	; (8005258 <pb_decode_inner+0x270>)
 8005246:	e7cc      	b.n	80051e2 <pb_decode_inner+0x1fa>
 8005248:	08005c70 	.word	0x08005c70
 800524c:	08005c5c 	.word	0x08005c5c
 8005250:	08005c50 	.word	0x08005c50
 8005254:	08005c38 	.word	0x08005c38
 8005258:	08005c94 	.word	0x08005c94

0800525c <decode_basic_field>:
 800525c:	b5f0      	push	{r4, r5, r6, r7, lr}
 800525e:	7d93      	ldrb	r3, [r2, #22]
 8005260:	b087      	sub	sp, #28
 8005262:	4615      	mov	r5, r2
 8005264:	4604      	mov	r4, r0
 8005266:	f003 030f 	and.w	r3, r3, #15
 800526a:	2b0b      	cmp	r3, #11
 800526c:	f200 80d2 	bhi.w	8005414 <decode_basic_field+0x1b8>
 8005270:	e8df f013 	tbh	[pc, r3, lsl #1]
 8005274:	000c008b 	.word	0x000c008b
 8005278:	000c000c 	.word	0x000c000c
 800527c:	009d0043 	.word	0x009d0043
 8005280:	005300b0 	.word	0x005300b0
 8005284:	00370037 	.word	0x00370037
 8005288:	007100d0 	.word	0x007100d0
 800528c:	3901      	subs	r1, #1
 800528e:	b2c9      	uxtb	r1, r1
 8005290:	29fd      	cmp	r1, #253	; 0xfd
 8005292:	d929      	bls.n	80052e8 <decode_basic_field+0x8c>
 8005294:	2b02      	cmp	r3, #2
 8005296:	a902      	add	r1, sp, #8
 8005298:	f000 80c4 	beq.w	8005424 <decode_basic_field+0x1c8>
 800529c:	2b03      	cmp	r3, #3
 800529e:	f000 8119 	beq.w	80054d4 <decode_basic_field+0x278>
 80052a2:	f7ff fe05 	bl	8004eb0 <pb_decode_varint>
 80052a6:	4606      	mov	r6, r0
 80052a8:	b320      	cbz	r0, 80052f4 <decode_basic_field+0x98>
 80052aa:	8a6a      	ldrh	r2, [r5, #18]
 80052ac:	9b02      	ldr	r3, [sp, #8]
 80052ae:	2a08      	cmp	r2, #8
 80052b0:	f000 8156 	beq.w	8005560 <decode_basic_field+0x304>
 80052b4:	17d9      	asrs	r1, r3, #31
 80052b6:	2a04      	cmp	r2, #4
 80052b8:	f000 8154 	beq.w	8005564 <decode_basic_field+0x308>
 80052bc:	2a02      	cmp	r2, #2
 80052be:	f000 8181 	beq.w	80055c4 <decode_basic_field+0x368>
 80052c2:	2a01      	cmp	r2, #1
 80052c4:	f040 8153 	bne.w	800556e <decode_basic_field+0x312>
 80052c8:	b25a      	sxtb	r2, r3
 80052ca:	69e8      	ldr	r0, [r5, #28]
 80052cc:	7002      	strb	r2, [r0, #0]
 80052ce:	17d0      	asrs	r0, r2, #31
 80052d0:	4288      	cmp	r0, r1
 80052d2:	bf08      	it	eq
 80052d4:	429a      	cmpeq	r2, r3
 80052d6:	f000 8193 	beq.w	8005600 <decode_basic_field+0x3a4>
 80052da:	68e3      	ldr	r3, [r4, #12]
 80052dc:	b943      	cbnz	r3, 80052f0 <decode_basic_field+0x94>
 80052de:	4ba7      	ldr	r3, [pc, #668]	; (800557c <decode_basic_field+0x320>)
 80052e0:	e006      	b.n	80052f0 <decode_basic_field+0x94>
 80052e2:	2902      	cmp	r1, #2
 80052e4:	f000 80be 	beq.w	8005464 <decode_basic_field+0x208>
 80052e8:	68e3      	ldr	r3, [r4, #12]
 80052ea:	2b00      	cmp	r3, #0
 80052ec:	f000 8098 	beq.w	8005420 <decode_basic_field+0x1c4>
 80052f0:	2600      	movs	r6, #0
 80052f2:	60e3      	str	r3, [r4, #12]
 80052f4:	4630      	mov	r0, r6
 80052f6:	b007      	add	sp, #28
 80052f8:	bdf0      	pop	{r4, r5, r6, r7, pc}
 80052fa:	2905      	cmp	r1, #5
 80052fc:	d001      	beq.n	8005302 <decode_basic_field+0xa6>
 80052fe:	29ff      	cmp	r1, #255	; 0xff
 8005300:	d1f2      	bne.n	80052e8 <decode_basic_field+0x8c>
 8005302:	4620      	mov	r0, r4
 8005304:	2204      	movs	r2, #4
 8005306:	a902      	add	r1, sp, #8
 8005308:	69ec      	ldr	r4, [r5, #28]
 800530a:	f7ff fd71 	bl	8004df0 <pb_read>
 800530e:	4606      	mov	r6, r0
 8005310:	2800      	cmp	r0, #0
 8005312:	d0ef      	beq.n	80052f4 <decode_basic_field+0x98>
 8005314:	9b02      	ldr	r3, [sp, #8]
 8005316:	6023      	str	r3, [r4, #0]
 8005318:	e7ec      	b.n	80052f4 <decode_basic_field+0x98>
 800531a:	2902      	cmp	r1, #2
 800531c:	d1e4      	bne.n	80052e8 <decode_basic_field+0x8c>
 800531e:	2200      	movs	r2, #0
 8005320:	a902      	add	r1, sp, #8
 8005322:	69ef      	ldr	r7, [r5, #28]
 8005324:	f7ff fcd0 	bl	8004cc8 <pb_decode_varint32_eof>
 8005328:	4606      	mov	r6, r0
 800532a:	2800      	cmp	r0, #0
 800532c:	d0e2      	beq.n	80052f4 <decode_basic_field+0x98>
 800532e:	9a02      	ldr	r2, [sp, #8]
 8005330:	1c53      	adds	r3, r2, #1
 8005332:	f000 8135 	beq.w	80055a0 <decode_basic_field+0x344>
 8005336:	7dab      	ldrb	r3, [r5, #22]
 8005338:	1c51      	adds	r1, r2, #1
 800533a:	f003 03c0 	and.w	r3, r3, #192	; 0xc0
 800533e:	2b80      	cmp	r3, #128	; 0x80
 8005340:	f000 80ef 	beq.w	8005522 <decode_basic_field+0x2c6>
 8005344:	8a6b      	ldrh	r3, [r5, #18]
 8005346:	4299      	cmp	r1, r3
 8005348:	f240 80e6 	bls.w	8005518 <decode_basic_field+0x2bc>
 800534c:	68e3      	ldr	r3, [r4, #12]
 800534e:	2b00      	cmp	r3, #0
 8005350:	d1ce      	bne.n	80052f0 <decode_basic_field+0x94>
 8005352:	4b8b      	ldr	r3, [pc, #556]	; (8005580 <decode_basic_field+0x324>)
 8005354:	e7cc      	b.n	80052f0 <decode_basic_field+0x94>
 8005356:	2902      	cmp	r1, #2
 8005358:	d1c6      	bne.n	80052e8 <decode_basic_field+0x8c>
 800535a:	2200      	movs	r2, #0
 800535c:	a902      	add	r1, sp, #8
 800535e:	f7ff fcb3 	bl	8004cc8 <pb_decode_varint32_eof>
 8005362:	4606      	mov	r6, r0
 8005364:	2800      	cmp	r0, #0
 8005366:	d0c5      	beq.n	80052f4 <decode_basic_field+0x98>
 8005368:	9902      	ldr	r1, [sp, #8]
 800536a:	f5b1 3f80 	cmp.w	r1, #65536	; 0x10000
 800536e:	f080 80ab 	bcs.w	80054c8 <decode_basic_field+0x26c>
 8005372:	2900      	cmp	r1, #0
 8005374:	f000 812b 	beq.w	80055ce <decode_basic_field+0x372>
 8005378:	8a6b      	ldrh	r3, [r5, #18]
 800537a:	4299      	cmp	r1, r3
 800537c:	f000 811e 	beq.w	80055bc <decode_basic_field+0x360>
 8005380:	68e3      	ldr	r3, [r4, #12]
 8005382:	2b00      	cmp	r3, #0
 8005384:	d1b4      	bne.n	80052f0 <decode_basic_field+0x94>
 8005386:	4b7f      	ldr	r3, [pc, #508]	; (8005584 <decode_basic_field+0x328>)
 8005388:	e7b2      	b.n	80052f0 <decode_basic_field+0x94>
 800538a:	3901      	subs	r1, #1
 800538c:	b2c9      	uxtb	r1, r1
 800538e:	29fd      	cmp	r1, #253	; 0xfd
 8005390:	d9aa      	bls.n	80052e8 <decode_basic_field+0x8c>
 8005392:	2200      	movs	r2, #0
 8005394:	a902      	add	r1, sp, #8
 8005396:	69ec      	ldr	r4, [r5, #28]
 8005398:	f7ff fc96 	bl	8004cc8 <pb_decode_varint32_eof>
 800539c:	4606      	mov	r6, r0
 800539e:	2800      	cmp	r0, #0
 80053a0:	d0a8      	beq.n	80052f4 <decode_basic_field+0x98>
 80053a2:	9b02      	ldr	r3, [sp, #8]
 80053a4:	3b00      	subs	r3, #0
 80053a6:	bf18      	it	ne
 80053a8:	2301      	movne	r3, #1
 80053aa:	7023      	strb	r3, [r4, #0]
 80053ac:	e7a2      	b.n	80052f4 <decode_basic_field+0x98>
 80053ae:	2901      	cmp	r1, #1
 80053b0:	d001      	beq.n	80053b6 <decode_basic_field+0x15a>
 80053b2:	29ff      	cmp	r1, #255	; 0xff
 80053b4:	d198      	bne.n	80052e8 <decode_basic_field+0x8c>
 80053b6:	2208      	movs	r2, #8
 80053b8:	4620      	mov	r0, r4
 80053ba:	69ec      	ldr	r4, [r5, #28]
 80053bc:	eb0d 0102 	add.w	r1, sp, r2
 80053c0:	f7ff fd16 	bl	8004df0 <pb_read>
 80053c4:	4606      	mov	r6, r0
 80053c6:	2800      	cmp	r0, #0
 80053c8:	d094      	beq.n	80052f4 <decode_basic_field+0x98>
 80053ca:	e9dd 2302 	ldrd	r2, r3, [sp, #8]
 80053ce:	e9c4 2300 	strd	r2, r3, [r4]
 80053d2:	e78f      	b.n	80052f4 <decode_basic_field+0x98>
 80053d4:	2902      	cmp	r1, #2
 80053d6:	d187      	bne.n	80052e8 <decode_basic_field+0x8c>
 80053d8:	2200      	movs	r2, #0
 80053da:	a902      	add	r1, sp, #8
 80053dc:	f7ff fc74 	bl	8004cc8 <pb_decode_varint32_eof>
 80053e0:	4606      	mov	r6, r0
 80053e2:	2800      	cmp	r0, #0
 80053e4:	d086      	beq.n	80052f4 <decode_basic_field+0x98>
 80053e6:	9a02      	ldr	r2, [sp, #8]
 80053e8:	f5b2 3f80 	cmp.w	r2, #65536	; 0x10000
 80053ec:	d26c      	bcs.n	80054c8 <decode_basic_field+0x26c>
 80053ee:	7dab      	ldrb	r3, [r5, #22]
 80053f0:	1c91      	adds	r1, r2, #2
 80053f2:	f003 03c0 	and.w	r3, r3, #192	; 0xc0
 80053f6:	2b80      	cmp	r3, #128	; 0x80
 80053f8:	f000 8093 	beq.w	8005522 <decode_basic_field+0x2c6>
 80053fc:	8a6b      	ldrh	r3, [r5, #18]
 80053fe:	4299      	cmp	r1, r3
 8005400:	d862      	bhi.n	80054c8 <decode_basic_field+0x26c>
 8005402:	69e9      	ldr	r1, [r5, #28]
 8005404:	4620      	mov	r0, r4
 8005406:	f821 2b02 	strh.w	r2, [r1], #2
 800540a:	b007      	add	sp, #28
 800540c:	e8bd 40f0 	ldmia.w	sp!, {r4, r5, r6, r7, lr}
 8005410:	f7ff bcee 	b.w	8004df0 <pb_read>
 8005414:	68c3      	ldr	r3, [r0, #12]
 8005416:	2b00      	cmp	r3, #0
 8005418:	f47f af6a 	bne.w	80052f0 <decode_basic_field+0x94>
 800541c:	4b5a      	ldr	r3, [pc, #360]	; (8005588 <decode_basic_field+0x32c>)
 800541e:	e767      	b.n	80052f0 <decode_basic_field+0x94>
 8005420:	4b5a      	ldr	r3, [pc, #360]	; (800558c <decode_basic_field+0x330>)
 8005422:	e765      	b.n	80052f0 <decode_basic_field+0x94>
 8005424:	f7ff fd44 	bl	8004eb0 <pb_decode_varint>
 8005428:	4606      	mov	r6, r0
 800542a:	2800      	cmp	r0, #0
 800542c:	f43f af62 	beq.w	80052f4 <decode_basic_field+0x98>
 8005430:	8a6b      	ldrh	r3, [r5, #18]
 8005432:	2b08      	cmp	r3, #8
 8005434:	f000 80d0 	beq.w	80055d8 <decode_basic_field+0x37c>
 8005438:	2b04      	cmp	r3, #4
 800543a:	f000 80d3 	beq.w	80055e4 <decode_basic_field+0x388>
 800543e:	2b02      	cmp	r3, #2
 8005440:	f000 80d7 	beq.w	80055f2 <decode_basic_field+0x396>
 8005444:	2b01      	cmp	r3, #1
 8005446:	f040 8092 	bne.w	800556e <decode_basic_field+0x312>
 800544a:	9b02      	ldr	r3, [sp, #8]
 800544c:	69e9      	ldr	r1, [r5, #28]
 800544e:	9a03      	ldr	r2, [sp, #12]
 8005450:	f003 00ff 	and.w	r0, r3, #255	; 0xff
 8005454:	700b      	strb	r3, [r1, #0]
 8005456:	2100      	movs	r1, #0
 8005458:	4291      	cmp	r1, r2
 800545a:	bf08      	it	eq
 800545c:	4298      	cmpeq	r0, r3
 800545e:	f47f af3c 	bne.w	80052da <decode_basic_field+0x7e>
 8005462:	e747      	b.n	80052f4 <decode_basic_field+0x98>
 8005464:	2200      	movs	r2, #0
 8005466:	a901      	add	r1, sp, #4
 8005468:	f7ff fc2e 	bl	8004cc8 <pb_decode_varint32_eof>
 800546c:	4606      	mov	r6, r0
 800546e:	2800      	cmp	r0, #0
 8005470:	f43f af40 	beq.w	80052f4 <decode_basic_field+0x98>
 8005474:	9e01      	ldr	r6, [sp, #4]
 8005476:	af02      	add	r7, sp, #8
 8005478:	e894 000f 	ldmia.w	r4, {r0, r1, r2, r3}
 800547c:	42b2      	cmp	r2, r6
 800547e:	e887 000f 	stmia.w	r7, {r0, r1, r2, r3}
 8005482:	d342      	bcc.n	800550a <decode_basic_field+0x2ae>
 8005484:	1b92      	subs	r2, r2, r6
 8005486:	6a69      	ldr	r1, [r5, #36]	; 0x24
 8005488:	9604      	str	r6, [sp, #16]
 800548a:	60a2      	str	r2, [r4, #8]
 800548c:	2900      	cmp	r1, #0
 800548e:	f000 8093 	beq.w	80055b8 <decode_basic_field+0x35c>
 8005492:	7dab      	ldrb	r3, [r5, #22]
 8005494:	f003 020f 	and.w	r2, r3, #15
 8005498:	2a09      	cmp	r2, #9
 800549a:	d048      	beq.n	800552e <decode_basic_field+0x2d2>
 800549c:	f013 0fc0 	tst.w	r3, #192	; 0xc0
 80054a0:	f040 8084 	bne.w	80055ac <decode_basic_field+0x350>
 80054a4:	f003 0330 	and.w	r3, r3, #48	; 0x30
 80054a8:	3b20      	subs	r3, #32
 80054aa:	bf18      	it	ne
 80054ac:	2301      	movne	r3, #1
 80054ae:	69ea      	ldr	r2, [r5, #28]
 80054b0:	4638      	mov	r0, r7
 80054b2:	f7ff fd99 	bl	8004fe8 <pb_decode_inner>
 80054b6:	9a04      	ldr	r2, [sp, #16]
 80054b8:	4606      	mov	r6, r0
 80054ba:	2a00      	cmp	r2, #0
 80054bc:	d148      	bne.n	8005550 <decode_basic_field+0x2f4>
 80054be:	9a03      	ldr	r2, [sp, #12]
 80054c0:	9b05      	ldr	r3, [sp, #20]
 80054c2:	6062      	str	r2, [r4, #4]
 80054c4:	60e3      	str	r3, [r4, #12]
 80054c6:	e715      	b.n	80052f4 <decode_basic_field+0x98>
 80054c8:	68e3      	ldr	r3, [r4, #12]
 80054ca:	2b00      	cmp	r3, #0
 80054cc:	f47f af10 	bne.w	80052f0 <decode_basic_field+0x94>
 80054d0:	4b2f      	ldr	r3, [pc, #188]	; (8005590 <decode_basic_field+0x334>)
 80054d2:	e70d      	b.n	80052f0 <decode_basic_field+0x94>
 80054d4:	f7ff fcec 	bl	8004eb0 <pb_decode_varint>
 80054d8:	4606      	mov	r6, r0
 80054da:	2800      	cmp	r0, #0
 80054dc:	f43f af0a 	beq.w	80052f4 <decode_basic_field+0x98>
 80054e0:	e9dd 3202 	ldrd	r3, r2, [sp, #8]
 80054e4:	f013 0f01 	tst.w	r3, #1
 80054e8:	ea4f 0353 	mov.w	r3, r3, lsr #1
 80054ec:	d060      	beq.n	80055b0 <decode_basic_field+0x354>
 80054ee:	ea43 73c2 	orr.w	r3, r3, r2, lsl #31
 80054f2:	ea6f 0152 	mvn.w	r1, r2, lsr #1
 80054f6:	43db      	mvns	r3, r3
 80054f8:	8a6a      	ldrh	r2, [r5, #18]
 80054fa:	2a08      	cmp	r2, #8
 80054fc:	f47f aedb 	bne.w	80052b6 <decode_basic_field+0x5a>
 8005500:	69ea      	ldr	r2, [r5, #28]
 8005502:	2601      	movs	r6, #1
 8005504:	e9c2 3100 	strd	r3, r1, [r2]
 8005508:	e6f4      	b.n	80052f4 <decode_basic_field+0x98>
 800550a:	4a22      	ldr	r2, [pc, #136]	; (8005594 <decode_basic_field+0x338>)
 800550c:	2600      	movs	r6, #0
 800550e:	42b3      	cmp	r3, r6
 8005510:	bf08      	it	eq
 8005512:	4613      	moveq	r3, r2
 8005514:	60e3      	str	r3, [r4, #12]
 8005516:	e6ed      	b.n	80052f4 <decode_basic_field+0x98>
 8005518:	2300      	movs	r3, #0
 800551a:	4620      	mov	r0, r4
 800551c:	4639      	mov	r1, r7
 800551e:	54bb      	strb	r3, [r7, r2]
 8005520:	e773      	b.n	800540a <decode_basic_field+0x1ae>
 8005522:	68e3      	ldr	r3, [r4, #12]
 8005524:	2b00      	cmp	r3, #0
 8005526:	f47f aee3 	bne.w	80052f0 <decode_basic_field+0x94>
 800552a:	4b1b      	ldr	r3, [pc, #108]	; (8005598 <decode_basic_field+0x33c>)
 800552c:	e6e0      	b.n	80052f0 <decode_basic_field+0x94>
 800552e:	6a2a      	ldr	r2, [r5, #32]
 8005530:	2a00      	cmp	r2, #0
 8005532:	d0b3      	beq.n	800549c <decode_basic_field+0x240>
 8005534:	f852 6c08 	ldr.w	r6, [r2, #-8]
 8005538:	2e00      	cmp	r6, #0
 800553a:	d0af      	beq.n	800549c <decode_basic_field+0x240>
 800553c:	3a04      	subs	r2, #4
 800553e:	4629      	mov	r1, r5
 8005540:	4638      	mov	r0, r7
 8005542:	47b0      	blx	r6
 8005544:	9a04      	ldr	r2, [sp, #16]
 8005546:	4606      	mov	r6, r0
 8005548:	2a00      	cmp	r2, #0
 800554a:	d0b8      	beq.n	80054be <decode_basic_field+0x262>
 800554c:	2800      	cmp	r0, #0
 800554e:	d159      	bne.n	8005604 <decode_basic_field+0x3a8>
 8005550:	2100      	movs	r1, #0
 8005552:	4638      	mov	r0, r7
 8005554:	f7ff fc4c 	bl	8004df0 <pb_read>
 8005558:	2800      	cmp	r0, #0
 800555a:	d1b0      	bne.n	80054be <decode_basic_field+0x262>
 800555c:	4606      	mov	r6, r0
 800555e:	e6c9      	b.n	80052f4 <decode_basic_field+0x98>
 8005560:	9903      	ldr	r1, [sp, #12]
 8005562:	e7cd      	b.n	8005500 <decode_basic_field+0x2a4>
 8005564:	69e8      	ldr	r0, [r5, #28]
 8005566:	461a      	mov	r2, r3
 8005568:	6003      	str	r3, [r0, #0]
 800556a:	17d8      	asrs	r0, r3, #31
 800556c:	e6b0      	b.n	80052d0 <decode_basic_field+0x74>
 800556e:	68e3      	ldr	r3, [r4, #12]
 8005570:	2b00      	cmp	r3, #0
 8005572:	f47f aebd 	bne.w	80052f0 <decode_basic_field+0x94>
 8005576:	4b09      	ldr	r3, [pc, #36]	; (800559c <decode_basic_field+0x340>)
 8005578:	e6ba      	b.n	80052f0 <decode_basic_field+0x94>
 800557a:	bf00      	nop
 800557c:	08005cd0 	.word	0x08005cd0
 8005580:	08005d18 	.word	0x08005d18
 8005584:	08005d5c 	.word	0x08005d5c
 8005588:	08005d80 	.word	0x08005d80
 800558c:	08005cac 	.word	0x08005cac
 8005590:	08005ce4 	.word	0x08005ce4
 8005594:	08005d28 	.word	0x08005d28
 8005598:	08005cf4 	.word	0x08005cf4
 800559c:	08005cbc 	.word	0x08005cbc
 80055a0:	68e3      	ldr	r3, [r4, #12]
 80055a2:	2b00      	cmp	r3, #0
 80055a4:	f47f aea4 	bne.w	80052f0 <decode_basic_field+0x94>
 80055a8:	4b18      	ldr	r3, [pc, #96]	; (800560c <decode_basic_field+0x3b0>)
 80055aa:	e6a1      	b.n	80052f0 <decode_basic_field+0x94>
 80055ac:	2300      	movs	r3, #0
 80055ae:	e77e      	b.n	80054ae <decode_basic_field+0x252>
 80055b0:	0851      	lsrs	r1, r2, #1
 80055b2:	ea43 73c2 	orr.w	r3, r3, r2, lsl #31
 80055b6:	e79f      	b.n	80054f8 <decode_basic_field+0x29c>
 80055b8:	4a15      	ldr	r2, [pc, #84]	; (8005610 <decode_basic_field+0x3b4>)
 80055ba:	e7a7      	b.n	800550c <decode_basic_field+0x2b0>
 80055bc:	460a      	mov	r2, r1
 80055be:	4620      	mov	r0, r4
 80055c0:	69e9      	ldr	r1, [r5, #28]
 80055c2:	e722      	b.n	800540a <decode_basic_field+0x1ae>
 80055c4:	b21a      	sxth	r2, r3
 80055c6:	69e8      	ldr	r0, [r5, #28]
 80055c8:	8002      	strh	r2, [r0, #0]
 80055ca:	17d0      	asrs	r0, r2, #31
 80055cc:	e680      	b.n	80052d0 <decode_basic_field+0x74>
 80055ce:	8a6a      	ldrh	r2, [r5, #18]
 80055d0:	69e8      	ldr	r0, [r5, #28]
 80055d2:	f000 fa7d 	bl	8005ad0 <memset>
 80055d6:	e68d      	b.n	80052f4 <decode_basic_field+0x98>
 80055d8:	69eb      	ldr	r3, [r5, #28]
 80055da:	e9dd 0102 	ldrd	r0, r1, [sp, #8]
 80055de:	e9c3 0100 	strd	r0, r1, [r3]
 80055e2:	e687      	b.n	80052f4 <decode_basic_field+0x98>
 80055e4:	9b02      	ldr	r3, [sp, #8]
 80055e6:	69e9      	ldr	r1, [r5, #28]
 80055e8:	9a03      	ldr	r2, [sp, #12]
 80055ea:	4618      	mov	r0, r3
 80055ec:	600b      	str	r3, [r1, #0]
 80055ee:	2100      	movs	r1, #0
 80055f0:	e732      	b.n	8005458 <decode_basic_field+0x1fc>
 80055f2:	9b02      	ldr	r3, [sp, #8]
 80055f4:	69e9      	ldr	r1, [r5, #28]
 80055f6:	9a03      	ldr	r2, [sp, #12]
 80055f8:	b298      	uxth	r0, r3
 80055fa:	800b      	strh	r3, [r1, #0]
 80055fc:	2100      	movs	r1, #0
 80055fe:	e72b      	b.n	8005458 <decode_basic_field+0x1fc>
 8005600:	2601      	movs	r6, #1
 8005602:	e677      	b.n	80052f4 <decode_basic_field+0x98>
 8005604:	7dab      	ldrb	r3, [r5, #22]
 8005606:	6a69      	ldr	r1, [r5, #36]	; 0x24
 8005608:	e748      	b.n	800549c <decode_basic_field+0x240>
 800560a:	bf00      	nop
 800560c:	08005d08 	.word	0x08005d08
 8005610:	08005d40 	.word	0x08005d40

08005614 <decode_field>:
 8005614:	e92d 47f0 	stmdb	sp!, {r4, r5, r6, r7, r8, r9, sl, lr}
 8005618:	7d95      	ldrb	r5, [r2, #22]
 800561a:	b08e      	sub	sp, #56	; 0x38
 800561c:	4606      	mov	r6, r0
 800561e:	460f      	mov	r7, r1
 8005620:	f005 03c0 	and.w	r3, r5, #192	; 0xc0
 8005624:	4614      	mov	r4, r2
 8005626:	2b40      	cmp	r3, #64	; 0x40
 8005628:	d050      	beq.n	80056cc <decode_field+0xb8>
 800562a:	2b80      	cmp	r3, #128	; 0x80
 800562c:	d049      	beq.n	80056c2 <decode_field+0xae>
 800562e:	b143      	cbz	r3, 8005642 <decode_field+0x2e>
 8005630:	68f3      	ldr	r3, [r6, #12]
 8005632:	2b00      	cmp	r3, #0
 8005634:	d05f      	beq.n	80056f6 <decode_field+0xe2>
 8005636:	2500      	movs	r5, #0
 8005638:	60f3      	str	r3, [r6, #12]
 800563a:	4628      	mov	r0, r5
 800563c:	b00e      	add	sp, #56	; 0x38
 800563e:	e8bd 87f0 	ldmia.w	sp!, {r4, r5, r6, r7, r8, r9, sl, pc}
 8005642:	f005 0c30 	and.w	ip, r5, #48	; 0x30
 8005646:	f1bc 0f20 	cmp.w	ip, #32
 800564a:	f000 8084 	beq.w	8005756 <decode_field+0x142>
 800564e:	d811      	bhi.n	8005674 <decode_field+0x60>
 8005650:	f1bc 0f00 	cmp.w	ip, #0
 8005654:	d009      	beq.n	800566a <decode_field+0x56>
 8005656:	f1bc 0f10 	cmp.w	ip, #16
 800565a:	d1e9      	bne.n	8005630 <decode_field+0x1c>
 800565c:	6a13      	ldr	r3, [r2, #32]
 800565e:	b10b      	cbz	r3, 8005664 <decode_field+0x50>
 8005660:	2201      	movs	r2, #1
 8005662:	701a      	strb	r2, [r3, #0]
 8005664:	4622      	mov	r2, r4
 8005666:	4639      	mov	r1, r7
 8005668:	4630      	mov	r0, r6
 800566a:	b00e      	add	sp, #56	; 0x38
 800566c:	e8bd 47f0 	ldmia.w	sp!, {r4, r5, r6, r7, r8, r9, sl, lr}
 8005670:	f7ff bdf4 	b.w	800525c <decode_basic_field>
 8005674:	f1bc 0f30 	cmp.w	ip, #48	; 0x30
 8005678:	d1da      	bne.n	8005630 <decode_field+0x1c>
 800567a:	f005 050e 	and.w	r5, r5, #14
 800567e:	f8b2 c010 	ldrh.w	ip, [r2, #16]
 8005682:	2d08      	cmp	r5, #8
 8005684:	6a15      	ldr	r5, [r2, #32]
 8005686:	d116      	bne.n	80056b6 <decode_field+0xa2>
 8005688:	882a      	ldrh	r2, [r5, #0]
 800568a:	4562      	cmp	r2, ip
 800568c:	d013      	beq.n	80056b6 <decode_field+0xa2>
 800568e:	4619      	mov	r1, r3
 8005690:	8a62      	ldrh	r2, [r4, #18]
 8005692:	69e0      	ldr	r0, [r4, #28]
 8005694:	f000 fa1c 	bl	8005ad0 <memset>
 8005698:	6a61      	ldr	r1, [r4, #36]	; 0x24
 800569a:	688b      	ldr	r3, [r1, #8]
 800569c:	2b00      	cmp	r3, #0
 800569e:	f000 80fe 	beq.w	800589e <decode_field+0x28a>
 80056a2:	69e2      	ldr	r2, [r4, #28]
 80056a4:	a804      	add	r0, sp, #16
 80056a6:	f7fe ffd7 	bl	8004658 <pb_field_iter_begin>
 80056aa:	2800      	cmp	r0, #0
 80056ac:	f040 8101 	bne.w	80058b2 <decode_field+0x29e>
 80056b0:	6a25      	ldr	r5, [r4, #32]
 80056b2:	f8b4 c010 	ldrh.w	ip, [r4, #16]
 80056b6:	4622      	mov	r2, r4
 80056b8:	4639      	mov	r1, r7
 80056ba:	4630      	mov	r0, r6
 80056bc:	f8a5 c000 	strh.w	ip, [r5]
 80056c0:	e7d3      	b.n	800566a <decode_field+0x56>
 80056c2:	68c3      	ldr	r3, [r0, #12]
 80056c4:	2b00      	cmp	r3, #0
 80056c6:	d1b6      	bne.n	8005636 <decode_field+0x22>
 80056c8:	4b83      	ldr	r3, [pc, #524]	; (80058d8 <decode_field+0x2c4>)
 80056ca:	e7b4      	b.n	8005636 <decode_field+0x22>
 80056cc:	6813      	ldr	r3, [r2, #0]
 80056ce:	68db      	ldr	r3, [r3, #12]
 80056d0:	2b00      	cmp	r3, #0
 80056d2:	f000 80d7 	beq.w	8005884 <decode_field+0x270>
 80056d6:	2902      	cmp	r1, #2
 80056d8:	d00f      	beq.n	80056fa <decode_field+0xe6>
 80056da:	2901      	cmp	r1, #1
 80056dc:	f000 80ca 	beq.w	8005874 <decode_field+0x260>
 80056e0:	2905      	cmp	r1, #5
 80056e2:	f000 80bc 	beq.w	800585e <decode_field+0x24a>
 80056e6:	2900      	cmp	r1, #0
 80056e8:	f000 8091 	beq.w	800580e <decode_field+0x1fa>
 80056ec:	68c3      	ldr	r3, [r0, #12]
 80056ee:	2b00      	cmp	r3, #0
 80056f0:	d1a1      	bne.n	8005636 <decode_field+0x22>
 80056f2:	4b7a      	ldr	r3, [pc, #488]	; (80058dc <decode_field+0x2c8>)
 80056f4:	e79f      	b.n	8005636 <decode_field+0x22>
 80056f6:	4b7a      	ldr	r3, [pc, #488]	; (80058e0 <decode_field+0x2cc>)
 80056f8:	e79d      	b.n	8005636 <decode_field+0x22>
 80056fa:	2200      	movs	r2, #0
 80056fc:	a901      	add	r1, sp, #4
 80056fe:	f7ff fae3 	bl	8004cc8 <pb_decode_varint32_eof>
 8005702:	4605      	mov	r5, r0
 8005704:	2800      	cmp	r0, #0
 8005706:	d098      	beq.n	800563a <decode_field+0x26>
 8005708:	9f01      	ldr	r7, [sp, #4]
 800570a:	f10d 0810 	add.w	r8, sp, #16
 800570e:	e896 000f 	ldmia.w	r6, {r0, r1, r2, r3}
 8005712:	42ba      	cmp	r2, r7
 8005714:	e888 000f 	stmia.w	r8, {r0, r1, r2, r3}
 8005718:	d332      	bcc.n	8005780 <decode_field+0x16c>
 800571a:	1bd2      	subs	r2, r2, r7
 800571c:	9706      	str	r7, [sp, #24]
 800571e:	60b2      	str	r2, [r6, #8]
 8005720:	e006      	b.n	8005730 <decode_field+0x11c>
 8005722:	9a06      	ldr	r2, [sp, #24]
 8005724:	2a00      	cmp	r2, #0
 8005726:	d06d      	beq.n	8005804 <decode_field+0x1f0>
 8005728:	42ba      	cmp	r2, r7
 800572a:	4617      	mov	r7, r2
 800572c:	f080 80af 	bcs.w	800588e <decode_field+0x27a>
 8005730:	6823      	ldr	r3, [r4, #0]
 8005732:	4622      	mov	r2, r4
 8005734:	2100      	movs	r1, #0
 8005736:	4640      	mov	r0, r8
 8005738:	68db      	ldr	r3, [r3, #12]
 800573a:	4798      	blx	r3
 800573c:	4605      	mov	r5, r0
 800573e:	2800      	cmp	r0, #0
 8005740:	d1ef      	bne.n	8005722 <decode_field+0x10e>
 8005742:	68f3      	ldr	r3, [r6, #12]
 8005744:	2b00      	cmp	r3, #0
 8005746:	f47f af77 	bne.w	8005638 <decode_field+0x24>
 800574a:	9b07      	ldr	r3, [sp, #28]
 800574c:	2b00      	cmp	r3, #0
 800574e:	f47f af73 	bne.w	8005638 <decode_field+0x24>
 8005752:	4b64      	ldr	r3, [pc, #400]	; (80058e4 <decode_field+0x2d0>)
 8005754:	e770      	b.n	8005638 <decode_field+0x24>
 8005756:	2902      	cmp	r1, #2
 8005758:	d019      	beq.n	800578e <decode_field+0x17a>
 800575a:	6a21      	ldr	r1, [r4, #32]
 800575c:	8a60      	ldrh	r0, [r4, #18]
 800575e:	880b      	ldrh	r3, [r1, #0]
 8005760:	69a2      	ldr	r2, [r4, #24]
 8005762:	fb03 2200 	mla	r2, r3, r0, r2
 8005766:	61e2      	str	r2, [r4, #28]
 8005768:	1c5a      	adds	r2, r3, #1
 800576a:	800a      	strh	r2, [r1, #0]
 800576c:	8aa2      	ldrh	r2, [r4, #20]
 800576e:	429a      	cmp	r2, r3
 8005770:	f63f af78 	bhi.w	8005664 <decode_field+0x50>
 8005774:	68f3      	ldr	r3, [r6, #12]
 8005776:	2b00      	cmp	r3, #0
 8005778:	f47f af5d 	bne.w	8005636 <decode_field+0x22>
 800577c:	4b5a      	ldr	r3, [pc, #360]	; (80058e8 <decode_field+0x2d4>)
 800577e:	e75a      	b.n	8005636 <decode_field+0x22>
 8005780:	2500      	movs	r5, #0
 8005782:	4a5a      	ldr	r2, [pc, #360]	; (80058ec <decode_field+0x2d8>)
 8005784:	42ab      	cmp	r3, r5
 8005786:	bf08      	it	eq
 8005788:	4613      	moveq	r3, r2
 800578a:	60f3      	str	r3, [r6, #12]
 800578c:	e755      	b.n	800563a <decode_field+0x26>
 800578e:	f005 050f 	and.w	r5, r5, #15
 8005792:	2d05      	cmp	r5, #5
 8005794:	d8e1      	bhi.n	800575a <decode_field+0x146>
 8005796:	6a17      	ldr	r7, [r2, #32]
 8005798:	461a      	mov	r2, r3
 800579a:	8a61      	ldrh	r1, [r4, #18]
 800579c:	883d      	ldrh	r5, [r7, #0]
 800579e:	69a3      	ldr	r3, [r4, #24]
 80057a0:	fb05 3301 	mla	r3, r5, r1, r3
 80057a4:	a901      	add	r1, sp, #4
 80057a6:	61e3      	str	r3, [r4, #28]
 80057a8:	f7ff fa8e 	bl	8004cc8 <pb_decode_varint32_eof>
 80057ac:	4605      	mov	r5, r0
 80057ae:	2800      	cmp	r0, #0
 80057b0:	f43f af43 	beq.w	800563a <decode_field+0x26>
 80057b4:	f8dd c004 	ldr.w	ip, [sp, #4]
 80057b8:	f10d 0810 	add.w	r8, sp, #16
 80057bc:	e896 000f 	ldmia.w	r6, {r0, r1, r2, r3}
 80057c0:	4562      	cmp	r2, ip
 80057c2:	e888 000f 	stmia.w	r8, {r0, r1, r2, r3}
 80057c6:	d3db      	bcc.n	8005780 <decode_field+0x16c>
 80057c8:	eba2 020c 	sub.w	r2, r2, ip
 80057cc:	f8cd c018 	str.w	ip, [sp, #24]
 80057d0:	60b2      	str	r2, [r6, #8]
 80057d2:	f1bc 0f00 	cmp.w	ip, #0
 80057d6:	d015      	beq.n	8005804 <decode_field+0x1f0>
 80057d8:	883b      	ldrh	r3, [r7, #0]
 80057da:	8aa0      	ldrh	r0, [r4, #20]
 80057dc:	4622      	mov	r2, r4
 80057de:	21ff      	movs	r1, #255	; 0xff
 80057e0:	4298      	cmp	r0, r3
 80057e2:	d9c7      	bls.n	8005774 <decode_field+0x160>
 80057e4:	4640      	mov	r0, r8
 80057e6:	f7ff fd39 	bl	800525c <decode_basic_field>
 80057ea:	2800      	cmp	r0, #0
 80057ec:	d06e      	beq.n	80058cc <decode_field+0x2b8>
 80057ee:	883b      	ldrh	r3, [r7, #0]
 80057f0:	69e2      	ldr	r2, [r4, #28]
 80057f2:	3301      	adds	r3, #1
 80057f4:	9906      	ldr	r1, [sp, #24]
 80057f6:	b29b      	uxth	r3, r3
 80057f8:	803b      	strh	r3, [r7, #0]
 80057fa:	8a60      	ldrh	r0, [r4, #18]
 80057fc:	4402      	add	r2, r0
 80057fe:	61e2      	str	r2, [r4, #28]
 8005800:	2900      	cmp	r1, #0
 8005802:	d1ea      	bne.n	80057da <decode_field+0x1c6>
 8005804:	9a05      	ldr	r2, [sp, #20]
 8005806:	9b07      	ldr	r3, [sp, #28]
 8005808:	6072      	str	r2, [r6, #4]
 800580a:	60f3      	str	r3, [r6, #12]
 800580c:	e715      	b.n	800563a <decode_field+0x26>
 800580e:	f10d 0904 	add.w	r9, sp, #4
 8005812:	f10d 0a0e 	add.w	sl, sp, #14
 8005816:	464d      	mov	r5, r9
 8005818:	f1c9 0801 	rsb	r8, r9, #1
 800581c:	4629      	mov	r1, r5
 800581e:	2201      	movs	r2, #1
 8005820:	4630      	mov	r0, r6
 8005822:	eb05 0708 	add.w	r7, r5, r8
 8005826:	f7ff fae3 	bl	8004df0 <pb_read>
 800582a:	b308      	cbz	r0, 8005870 <decode_field+0x25c>
 800582c:	f915 3b01 	ldrsb.w	r3, [r5], #1
 8005830:	2b00      	cmp	r3, #0
 8005832:	da07      	bge.n	8005844 <decode_field+0x230>
 8005834:	4555      	cmp	r5, sl
 8005836:	d1f1      	bne.n	800581c <decode_field+0x208>
 8005838:	68f3      	ldr	r3, [r6, #12]
 800583a:	2b00      	cmp	r3, #0
 800583c:	f47f aefb 	bne.w	8005636 <decode_field+0x22>
 8005840:	4b2b      	ldr	r3, [pc, #172]	; (80058f0 <decode_field+0x2dc>)
 8005842:	e6f8      	b.n	8005636 <decode_field+0x22>
 8005844:	2100      	movs	r1, #0
 8005846:	6823      	ldr	r3, [r4, #0]
 8005848:	4a2a      	ldr	r2, [pc, #168]	; (80058f4 <decode_field+0x2e0>)
 800584a:	a804      	add	r0, sp, #16
 800584c:	68db      	ldr	r3, [r3, #12]
 800584e:	e9cd 2904 	strd	r2, r9, [sp, #16]
 8005852:	e9cd 7106 	strd	r7, r1, [sp, #24]
 8005856:	4622      	mov	r2, r4
 8005858:	4798      	blx	r3
 800585a:	4605      	mov	r5, r0
 800585c:	e6ed      	b.n	800563a <decode_field+0x26>
 800585e:	f10d 0904 	add.w	r9, sp, #4
 8005862:	2704      	movs	r7, #4
 8005864:	2204      	movs	r2, #4
 8005866:	4649      	mov	r1, r9
 8005868:	f7ff fac2 	bl	8004df0 <pb_read>
 800586c:	2800      	cmp	r0, #0
 800586e:	d1e9      	bne.n	8005844 <decode_field+0x230>
 8005870:	2500      	movs	r5, #0
 8005872:	e6e2      	b.n	800563a <decode_field+0x26>
 8005874:	f10d 0904 	add.w	r9, sp, #4
 8005878:	2208      	movs	r2, #8
 800587a:	2708      	movs	r7, #8
 800587c:	4649      	mov	r1, r9
 800587e:	f7ff fab7 	bl	8004df0 <pb_read>
 8005882:	e7f3      	b.n	800586c <decode_field+0x258>
 8005884:	b00e      	add	sp, #56	; 0x38
 8005886:	e8bd 47f0 	ldmia.w	sp!, {r4, r5, r6, r7, r8, r9, sl, lr}
 800588a:	f7ff bb65 	b.w	8004f58 <pb_skip_field>
 800588e:	2100      	movs	r1, #0
 8005890:	4640      	mov	r0, r8
 8005892:	f7ff faad 	bl	8004df0 <pb_read>
 8005896:	2800      	cmp	r0, #0
 8005898:	d1b4      	bne.n	8005804 <decode_field+0x1f0>
 800589a:	4605      	mov	r5, r0
 800589c:	e6cd      	b.n	800563a <decode_field+0x26>
 800589e:	68cb      	ldr	r3, [r1, #12]
 80058a0:	2b00      	cmp	r3, #0
 80058a2:	f47f aefe 	bne.w	80056a2 <decode_field+0x8e>
 80058a6:	684b      	ldr	r3, [r1, #4]
 80058a8:	681b      	ldr	r3, [r3, #0]
 80058aa:	2b00      	cmp	r3, #0
 80058ac:	f47f aef9 	bne.w	80056a2 <decode_field+0x8e>
 80058b0:	e6fe      	b.n	80056b0 <decode_field+0x9c>
 80058b2:	a804      	add	r0, sp, #16
 80058b4:	f000 f822 	bl	80058fc <pb_message_set_to_defaults>
 80058b8:	4605      	mov	r5, r0
 80058ba:	2800      	cmp	r0, #0
 80058bc:	f47f aef8 	bne.w	80056b0 <decode_field+0x9c>
 80058c0:	68f3      	ldr	r3, [r6, #12]
 80058c2:	2b00      	cmp	r3, #0
 80058c4:	f47f aeb8 	bne.w	8005638 <decode_field+0x24>
 80058c8:	4b0b      	ldr	r3, [pc, #44]	; (80058f8 <decode_field+0x2e4>)
 80058ca:	e6b5      	b.n	8005638 <decode_field+0x24>
 80058cc:	9d06      	ldr	r5, [sp, #24]
 80058ce:	2d00      	cmp	r5, #0
 80058d0:	f47f af50 	bne.w	8005774 <decode_field+0x160>
 80058d4:	e796      	b.n	8005804 <decode_field+0x1f0>
 80058d6:	bf00      	nop
 80058d8:	08005cf4 	.word	0x08005cf4
 80058dc:	08005c24 	.word	0x08005c24
 80058e0:	08005d80 	.word	0x08005d80
 80058e4:	08005da4 	.word	0x08005da4
 80058e8:	08005d94 	.word	0x08005d94
 80058ec:	08005d28 	.word	0x08005d28
 80058f0:	08005c14 	.word	0x08005c14
 80058f4:	08004cb1 	.word	0x08004cb1
 80058f8:	08005c38 	.word	0x08005c38

080058fc <pb_message_set_to_defaults>:
 80058fc:	6802      	ldr	r2, [r0, #0]
 80058fe:	2300      	movs	r3, #0
 8005900:	e92d 41f0 	stmdb	sp!, {r4, r5, r6, r7, r8, lr}
 8005904:	6897      	ldr	r7, [r2, #8]
 8005906:	b090      	sub	sp, #64	; 0x40
 8005908:	4605      	mov	r5, r0
 800590a:	9304      	str	r3, [sp, #16]
 800590c:	9305      	str	r3, [sp, #20]
 800590e:	e9cd 3302 	strd	r3, r3, [sp, #8]
 8005912:	2f00      	cmp	r7, #0
 8005914:	f000 8095 	beq.w	8005a42 <pb_message_set_to_defaults+0x146>
 8005918:	f04f 32ff 	mov.w	r2, #4294967295
 800591c:	f88d 3007 	strb.w	r3, [sp, #7]
 8005920:	4b68      	ldr	r3, [pc, #416]	; (8005ac4 <pb_message_set_to_defaults+0x1c8>)
 8005922:	9204      	str	r2, [sp, #16]
 8005924:	1c7a      	adds	r2, r7, #1
 8005926:	9302      	str	r3, [sp, #8]
 8005928:	9203      	str	r2, [sp, #12]
 800592a:	f06f 0201 	mvn.w	r2, #1
 800592e:	783f      	ldrb	r7, [r7, #0]
 8005930:	9204      	str	r2, [sp, #16]
 8005932:	0638      	lsls	r0, r7, #24
 8005934:	f88d 7018 	strb.w	r7, [sp, #24]
 8005938:	f100 8085 	bmi.w	8005a46 <pb_message_set_to_defaults+0x14a>
 800593c:	463e      	mov	r6, r7
 800593e:	08f6      	lsrs	r6, r6, #3
 8005940:	f007 0707 	and.w	r7, r7, #7
 8005944:	f04f 0800 	mov.w	r8, #0
 8005948:	7dab      	ldrb	r3, [r5, #22]
 800594a:	f003 020f 	and.w	r2, r3, #15
 800594e:	2a0a      	cmp	r2, #10
 8005950:	d017      	beq.n	8005982 <pb_message_set_to_defaults+0x86>
 8005952:	f013 02c0 	ands.w	r2, r3, #192	; 0xc0
 8005956:	d129      	bne.n	80059ac <pb_message_set_to_defaults+0xb0>
 8005958:	f003 0130 	and.w	r1, r3, #48	; 0x30
 800595c:	2910      	cmp	r1, #16
 800595e:	d030      	beq.n	80059c2 <pb_message_set_to_defaults+0xc6>
 8005960:	069c      	lsls	r4, r3, #26
 8005962:	d531      	bpl.n	80059c8 <pb_message_set_to_defaults+0xcc>
 8005964:	6a2b      	ldr	r3, [r5, #32]
 8005966:	801a      	strh	r2, [r3, #0]
 8005968:	b116      	cbz	r6, 8005970 <pb_message_set_to_defaults+0x74>
 800596a:	8a2b      	ldrh	r3, [r5, #16]
 800596c:	42b3      	cmp	r3, r6
 800596e:	d040      	beq.n	80059f2 <pb_message_set_to_defaults+0xf6>
 8005970:	4628      	mov	r0, r5
 8005972:	f7fe ff8b 	bl	800488c <pb_field_iter_next>
 8005976:	2800      	cmp	r0, #0
 8005978:	d1e6      	bne.n	8005948 <pb_message_set_to_defaults+0x4c>
 800597a:	2001      	movs	r0, #1
 800597c:	b010      	add	sp, #64	; 0x40
 800597e:	e8bd 81f0 	ldmia.w	sp!, {r4, r5, r6, r7, r8, pc}
 8005982:	69eb      	ldr	r3, [r5, #28]
 8005984:	681c      	ldr	r4, [r3, #0]
 8005986:	b91c      	cbnz	r4, 8005990 <pb_message_set_to_defaults+0x94>
 8005988:	e7ee      	b.n	8005968 <pb_message_set_to_defaults+0x6c>
 800598a:	68a4      	ldr	r4, [r4, #8]
 800598c:	2c00      	cmp	r4, #0
 800598e:	d0eb      	beq.n	8005968 <pb_message_set_to_defaults+0x6c>
 8005990:	4621      	mov	r1, r4
 8005992:	a806      	add	r0, sp, #24
 8005994:	f7fe fedc 	bl	8004750 <pb_field_iter_begin_extension>
 8005998:	2800      	cmp	r0, #0
 800599a:	d0f6      	beq.n	800598a <pb_message_set_to_defaults+0x8e>
 800599c:	a806      	add	r0, sp, #24
 800599e:	f884 800c 	strb.w	r8, [r4, #12]
 80059a2:	f7ff ffab 	bl	80058fc <pb_message_set_to_defaults>
 80059a6:	2800      	cmp	r0, #0
 80059a8:	d1ef      	bne.n	800598a <pb_message_set_to_defaults+0x8e>
 80059aa:	e7e7      	b.n	800597c <pb_message_set_to_defaults+0x80>
 80059ac:	2a80      	cmp	r2, #128	; 0x80
 80059ae:	d1db      	bne.n	8005968 <pb_message_set_to_defaults+0x6c>
 80059b0:	69aa      	ldr	r2, [r5, #24]
 80059b2:	0698      	lsls	r0, r3, #26
 80059b4:	f8c2 8000 	str.w	r8, [r2]
 80059b8:	d5d6      	bpl.n	8005968 <pb_message_set_to_defaults+0x6c>
 80059ba:	6a2b      	ldr	r3, [r5, #32]
 80059bc:	f8a3 8000 	strh.w	r8, [r3]
 80059c0:	e7d2      	b.n	8005968 <pb_message_set_to_defaults+0x6c>
 80059c2:	6a29      	ldr	r1, [r5, #32]
 80059c4:	b101      	cbz	r1, 80059c8 <pb_message_set_to_defaults+0xcc>
 80059c6:	700a      	strb	r2, [r1, #0]
 80059c8:	f003 030e 	and.w	r3, r3, #14
 80059cc:	2b08      	cmp	r3, #8
 80059ce:	d132      	bne.n	8005a36 <pb_message_set_to_defaults+0x13a>
 80059d0:	6a69      	ldr	r1, [r5, #36]	; 0x24
 80059d2:	688b      	ldr	r3, [r1, #8]
 80059d4:	b343      	cbz	r3, 8005a28 <pb_message_set_to_defaults+0x12c>
 80059d6:	69ea      	ldr	r2, [r5, #28]
 80059d8:	a806      	add	r0, sp, #24
 80059da:	f7fe fe3d 	bl	8004658 <pb_field_iter_begin>
 80059de:	2800      	cmp	r0, #0
 80059e0:	d0c2      	beq.n	8005968 <pb_message_set_to_defaults+0x6c>
 80059e2:	a806      	add	r0, sp, #24
 80059e4:	f7ff ff8a 	bl	80058fc <pb_message_set_to_defaults>
 80059e8:	2800      	cmp	r0, #0
 80059ea:	d1bd      	bne.n	8005968 <pb_message_set_to_defaults+0x6c>
 80059ec:	b010      	add	sp, #64	; 0x40
 80059ee:	e8bd 81f0 	ldmia.w	sp!, {r4, r5, r6, r7, r8, pc}
 80059f2:	462a      	mov	r2, r5
 80059f4:	4639      	mov	r1, r7
 80059f6:	a802      	add	r0, sp, #8
 80059f8:	f7ff fe0c 	bl	8005614 <decode_field>
 80059fc:	2800      	cmp	r0, #0
 80059fe:	d0bd      	beq.n	800597c <pb_message_set_to_defaults+0x80>
 8005a00:	f10d 0207 	add.w	r2, sp, #7
 8005a04:	a906      	add	r1, sp, #24
 8005a06:	a802      	add	r0, sp, #8
 8005a08:	f88d 8007 	strb.w	r8, [sp, #7]
 8005a0c:	f7ff f95c 	bl	8004cc8 <pb_decode_varint32_eof>
 8005a10:	2800      	cmp	r0, #0
 8005a12:	d0b3      	beq.n	800597c <pb_message_set_to_defaults+0x80>
 8005a14:	9f06      	ldr	r7, [sp, #24]
 8005a16:	6a2b      	ldr	r3, [r5, #32]
 8005a18:	08fe      	lsrs	r6, r7, #3
 8005a1a:	f007 0707 	and.w	r7, r7, #7
 8005a1e:	2b00      	cmp	r3, #0
 8005a20:	d0a6      	beq.n	8005970 <pb_message_set_to_defaults+0x74>
 8005a22:	f883 8000 	strb.w	r8, [r3]
 8005a26:	e7a3      	b.n	8005970 <pb_message_set_to_defaults+0x74>
 8005a28:	68cb      	ldr	r3, [r1, #12]
 8005a2a:	2b00      	cmp	r3, #0
 8005a2c:	d1d3      	bne.n	80059d6 <pb_message_set_to_defaults+0xda>
 8005a2e:	684b      	ldr	r3, [r1, #4]
 8005a30:	681b      	ldr	r3, [r3, #0]
 8005a32:	2b00      	cmp	r3, #0
 8005a34:	d1cf      	bne.n	80059d6 <pb_message_set_to_defaults+0xda>
 8005a36:	8a6a      	ldrh	r2, [r5, #18]
 8005a38:	2100      	movs	r1, #0
 8005a3a:	69e8      	ldr	r0, [r5, #28]
 8005a3c:	f000 f848 	bl	8005ad0 <memset>
 8005a40:	e792      	b.n	8005968 <pb_message_set_to_defaults+0x6c>
 8005a42:	463e      	mov	r6, r7
 8005a44:	e77e      	b.n	8005944 <pb_message_set_to_defaults+0x48>
 8005a46:	f007 067f 	and.w	r6, r7, #127	; 0x7f
 8005a4a:	2407      	movs	r4, #7
 8005a4c:	2201      	movs	r2, #1
 8005a4e:	a906      	add	r1, sp, #24
 8005a50:	a802      	add	r0, sp, #8
 8005a52:	4798      	blx	r3
 8005a54:	b178      	cbz	r0, 8005a76 <pb_message_set_to_defaults+0x17a>
 8005a56:	9b04      	ldr	r3, [sp, #16]
 8005a58:	2c1f      	cmp	r4, #31
 8005a5a:	f89d 2018 	ldrb.w	r2, [sp, #24]
 8005a5e:	f103 33ff 	add.w	r3, r3, #4294967295
 8005a62:	9304      	str	r3, [sp, #16]
 8005a64:	d90b      	bls.n	8005a7e <pb_message_set_to_defaults+0x182>
 8005a66:	2c3e      	cmp	r4, #62	; 0x3e
 8005a68:	d919      	bls.n	8005a9e <pb_message_set_to_defaults+0x1a2>
 8005a6a:	0651      	lsls	r1, r2, #25
 8005a6c:	d014      	beq.n	8005a98 <pb_message_set_to_defaults+0x19c>
 8005a6e:	2a01      	cmp	r2, #1
 8005a70:	d101      	bne.n	8005a76 <pb_message_set_to_defaults+0x17a>
 8005a72:	2e00      	cmp	r6, #0
 8005a74:	db10      	blt.n	8005a98 <pb_message_set_to_defaults+0x19c>
 8005a76:	2000      	movs	r0, #0
 8005a78:	b010      	add	sp, #64	; 0x40
 8005a7a:	e8bd 81f0 	ldmia.w	sp!, {r4, r5, r6, r7, r8, pc}
 8005a7e:	2c1c      	cmp	r4, #28
 8005a80:	d014      	beq.n	8005aac <pb_message_set_to_defaults+0x1b0>
 8005a82:	f002 017f 	and.w	r1, r2, #127	; 0x7f
 8005a86:	40a1      	lsls	r1, r4
 8005a88:	430e      	orrs	r6, r1
 8005a8a:	0617      	lsls	r7, r2, #24
 8005a8c:	d518      	bpl.n	8005ac0 <pb_message_set_to_defaults+0x1c4>
 8005a8e:	2b00      	cmp	r3, #0
 8005a90:	d0f1      	beq.n	8005a76 <pb_message_set_to_defaults+0x17a>
 8005a92:	3407      	adds	r4, #7
 8005a94:	9b02      	ldr	r3, [sp, #8]
 8005a96:	e7d9      	b.n	8005a4c <pb_message_set_to_defaults+0x150>
 8005a98:	2c3f      	cmp	r4, #63	; 0x3f
 8005a9a:	d0f6      	beq.n	8005a8a <pb_message_set_to_defaults+0x18e>
 8005a9c:	e7eb      	b.n	8005a76 <pb_message_set_to_defaults+0x17a>
 8005a9e:	0651      	lsls	r1, r2, #25
 8005aa0:	d0f3      	beq.n	8005a8a <pb_message_set_to_defaults+0x18e>
 8005aa2:	2aff      	cmp	r2, #255	; 0xff
 8005aa4:	d1e7      	bne.n	8005a76 <pb_message_set_to_defaults+0x17a>
 8005aa6:	2e00      	cmp	r6, #0
 8005aa8:	dae5      	bge.n	8005a76 <pb_message_set_to_defaults+0x17a>
 8005aaa:	e7f0      	b.n	8005a8e <pb_message_set_to_defaults+0x192>
 8005aac:	f012 0f70 	tst.w	r2, #112	; 0x70
 8005ab0:	d003      	beq.n	8005aba <pb_message_set_to_defaults+0x1be>
 8005ab2:	f002 0178 	and.w	r1, r2, #120	; 0x78
 8005ab6:	2978      	cmp	r1, #120	; 0x78
 8005ab8:	d1dd      	bne.n	8005a76 <pb_message_set_to_defaults+0x17a>
 8005aba:	ea46 7602 	orr.w	r6, r6, r2, lsl #28
 8005abe:	e7e4      	b.n	8005a8a <pb_message_set_to_defaults+0x18e>
 8005ac0:	b2f7      	uxtb	r7, r6
 8005ac2:	e73c      	b.n	800593e <pb_message_set_to_defaults+0x42>
 8005ac4:	08004cb1 	.word	0x08004cb1

08005ac8 <pb_decode>:
 8005ac8:	2300      	movs	r3, #0
 8005aca:	f7ff ba8d 	b.w	8004fe8 <pb_decode_inner>
 8005ace:	bf00      	nop

08005ad0 <memset>:
 8005ad0:	4402      	add	r2, r0
 8005ad2:	4603      	mov	r3, r0
 8005ad4:	4293      	cmp	r3, r2
 8005ad6:	d100      	bne.n	8005ada <memset+0xa>
 8005ad8:	4770      	bx	lr
 8005ada:	f803 1b01 	strb.w	r1, [r3], #1
 8005ade:	e7f9      	b.n	8005ad4 <memset+0x4>

08005ae0 <__libc_init_array>:
 8005ae0:	b570      	push	{r4, r5, r6, lr}
 8005ae2:	4d0d      	ldr	r5, [pc, #52]	; (8005b18 <__libc_init_array+0x38>)
 8005ae4:	4c0d      	ldr	r4, [pc, #52]	; (8005b1c <__libc_init_array+0x3c>)
 8005ae6:	1b64      	subs	r4, r4, r5
 8005ae8:	10a4      	asrs	r4, r4, #2
 8005aea:	2600      	movs	r6, #0
 8005aec:	42a6      	cmp	r6, r4
 8005aee:	d109      	bne.n	8005b04 <__libc_init_array+0x24>
 8005af0:	4d0b      	ldr	r5, [pc, #44]	; (8005b20 <__libc_init_array+0x40>)
 8005af2:	4c0c      	ldr	r4, [pc, #48]	; (8005b24 <__libc_init_array+0x44>)
 8005af4:	f000 f826 	bl	8005b44 <_init>
 8005af8:	1b64      	subs	r4, r4, r5
 8005afa:	10a4      	asrs	r4, r4, #2
 8005afc:	2600      	movs	r6, #0
 8005afe:	42a6      	cmp	r6, r4
 8005b00:	d105      	bne.n	8005b0e <__libc_init_array+0x2e>
 8005b02:	bd70      	pop	{r4, r5, r6, pc}
 8005b04:	f855 3b04 	ldr.w	r3, [r5], #4
 8005b08:	4798      	blx	r3
 8005b0a:	3601      	adds	r6, #1
 8005b0c:	e7ee      	b.n	8005aec <__libc_init_array+0xc>
 8005b0e:	f855 3b04 	ldr.w	r3, [r5], #4
 8005b12:	4798      	blx	r3
 8005b14:	3601      	adds	r6, #1
 8005b16:	e7f2      	b.n	8005afe <__libc_init_array+0x1e>
 8005b18:	08005dbc 	.word	0x08005dbc
 8005b1c:	08005dbc 	.word	0x08005dbc
 8005b20:	08005dbc 	.word	0x08005dbc
 8005b24:	08005dc0 	.word	0x08005dc0

08005b28 <memcpy>:
 8005b28:	440a      	add	r2, r1
 8005b2a:	4291      	cmp	r1, r2
 8005b2c:	f100 33ff 	add.w	r3, r0, #4294967295
 8005b30:	d100      	bne.n	8005b34 <memcpy+0xc>
 8005b32:	4770      	bx	lr
 8005b34:	b510      	push	{r4, lr}
 8005b36:	f811 4b01 	ldrb.w	r4, [r1], #1
 8005b3a:	f803 4f01 	strb.w	r4, [r3, #1]!
 8005b3e:	4291      	cmp	r1, r2
 8005b40:	d1f9      	bne.n	8005b36 <memcpy+0xe>
 8005b42:	bd10      	pop	{r4, pc}

08005b44 <_init>:
 8005b44:	b5f8      	push	{r3, r4, r5, r6, r7, lr}
 8005b46:	bf00      	nop
 8005b48:	bcf8      	pop	{r3, r4, r5, r6, r7}
 8005b4a:	bc08      	pop	{r3}
 8005b4c:	469e      	mov	lr, r3
 8005b4e:	4770      	bx	lr

08005b50 <_fini>:
 8005b50:	b5f8      	push	{r3, r4, r5, r6, r7, lr}
 8005b52:	bf00      	nop
 8005b54:	bcf8      	pop	{r3, r4, r5, r6, r7}
 8005b56:	bc08      	pop	{r3}
 8005b58:	469e      	mov	lr, r3
 8005b5a:	4770      	bx	lr
